gpasm-0.13.5 beta               _output/main__mios-gpasm-tmp.asm11-21-2009  19:30:07         PAGE  1


LOC  OBJECT CODE     LINE SOURCE TEXT
  VALUE
 
               00001 ;--------------------------------------------------------
               00002 ; File Created by SDCC : free open source ANSI-C Compiler
               00003 ; Version 2.8.0 #5117 (Mar 23 2008) (MINGW32)
               00004 ; This file was generated Sat Nov 21 19:30:06 2009
               00005 ;--------------------------------------------------------
               00006 ; PIC16 port for the Microchip 16-bit core micros
               00007 ;--------------------------------------------------------
               00008         list    p=18f452
               00009 
               00010         radix dec
               00011 
               00012 ;--------------------------------------------------------
               00013 ; public variables in this module
               00014 ;--------------------------------------------------------
               00015         global _DisplayLED
               00016         global _ClearMatrix
               00017         global _DoStartupPattern
               00018         global _DoShutdownPattern
               00019         global _TestMatrix1
               00020         global _TestMatrix2
               00021         global _DoMichaelKnightPattern
               00022         global _app_flags
               00023         global _last_ain_pin
               00024         global _last_din_pin
               00025         global _last_dout_pin
               00026         global _test_mode
               00027         global _record_sysex
               00028         global _last_sysex
               00029         global _clock_ticks
               00030         global _clock_beats
               00031         global _clock_bars
               00032         global _Init
               00033         global _Tick
               00034         global _Timer
               00035         global _DISPLAY_Init
               00036         global _DISPLAY_Tick
               00037         global _MPROC_NotifyReceivedEvnt
               00038         global _MPROC_NotifyFoundEvent
               00039         global _MPROC_NotifyTimeout
               00040         global _MPROC_NotifyReceivedByte
               00041         global _SR_Service_Prepare
               00042         global _SR_Service_Finish
               00043         global _DIN_NotifyToggle
               00044         global _ENC_NotifyChange
               00045         global _AIN_NotifyChange
               00046         global _pot_event_map
               00047         global _button_event_map
               00048 
               00049 ;--------------------------------------------------------
               00050 ; extern variables in this module
               00051 ;--------------------------------------------------------
               00052         extern _MIOS_BOX_CFG0
               00053         extern _MIOS_BOX_CFG1
               00054         extern _MIOS_BOX_STAT
gpasm-0.13.5 beta               _output/main__mios-gpasm-tmp.asm11-21-2009  19:30:07         PAGE  2


LOC  OBJECT CODE     LINE SOURCE TEXT
  VALUE
 
               00055         extern _MIOS_PARAMETER1
               00056         extern _MIOS_PARAMETER2
               00057         extern _MIOS_PARAMETER3
               00058         extern _PORTAbits
               00059         extern _PORTBbits
               00060         extern _PORTCbits
               00061         extern _PORTDbits
               00062         extern _PORTEbits
               00063         extern _LATAbits
               00064         extern _LATBbits
               00065         extern _LATCbits
               00066         extern _LATDbits
               00067         extern _LATEbits
               00068         extern _TRISAbits
               00069         extern _TRISBbits
               00070         extern _TRISCbits
               00071         extern _TRISDbits
               00072         extern _TRISEbits
               00073         extern _PIE1bits
               00074         extern _PIR1bits
               00075         extern _IPR1bits
               00076         extern _PIE2bits
               00077         extern _PIR2bits
               00078         extern _IPR2bits
               00079         extern _EECON1bits
               00080         extern _RCSTAbits
               00081         extern _TXSTAbits
               00082         extern _T3CONbits
               00083         extern _CCP2CONbits
               00084         extern _CCP1CONbits
               00085         extern _ADCON1bits
               00086         extern _ADCON0bits
               00087         extern _SSPCON2bits
               00088         extern _SSPCON1bits
               00089         extern _SSPSTATbits
               00090         extern _T2CONbits
               00091         extern _T1CONbits
               00092         extern _RCONbits
               00093         extern _WDTCONbits
               00094         extern _LVDCONbits
               00095         extern _OSCCONbits
               00096         extern _T0CONbits
               00097         extern _STATUSbits
               00098         extern _INTCON3bits
               00099         extern _INTCON2bits
               00100         extern _INTCONbits
               00101         extern _STKPTRbits
               00102         extern _PORTA
               00103         extern _PORTB
               00104         extern _PORTC
               00105         extern _PORTD
               00106         extern _PORTE
               00107         extern _LATA
               00108         extern _LATB
gpasm-0.13.5 beta               _output/main__mios-gpasm-tmp.asm11-21-2009  19:30:07         PAGE  3


LOC  OBJECT CODE     LINE SOURCE TEXT
  VALUE
 
               00109         extern _LATC
               00110         extern _LATD
               00111         extern _LATE
               00112         extern _TRISA
               00113         extern _TRISB
               00114         extern _TRISC
               00115         extern _TRISD
               00116         extern _TRISE
               00117         extern _PIE1
               00118         extern _PIR1
               00119         extern _IPR1
               00120         extern _PIE2
               00121         extern _PIR2
               00122         extern _IPR2
               00123         extern _EECON1
               00124         extern _EECON2
               00125         extern _EEDATA
               00126         extern _EEADR
               00127         extern _RCSTA
               00128         extern _TXSTA
               00129         extern _TXREG
               00130         extern _RCREG
               00131         extern _SPBRG
               00132         extern _T3CON
               00133         extern _TMR3L
               00134         extern _TMR3H
               00135         extern _CCP2CON
               00136         extern _CCPR2L
               00137         extern _CCPR2H
               00138         extern _CCP1CON
               00139         extern _CCPR1L
               00140         extern _CCPR1H
               00141         extern _ADCON1
               00142         extern _ADCON0
               00143         extern _ADRESL
               00144         extern _ADRESH
               00145         extern _SSPCON2
               00146         extern _SSPCON1
               00147         extern _SSPSTAT
               00148         extern _SSPADD
               00149         extern _SSPBUF
               00150         extern _T2CON
               00151         extern _PR2
               00152         extern _TMR2
               00153         extern _T1CON
               00154         extern _TMR1L
               00155         extern _TMR1H
               00156         extern _RCON
               00157         extern _WDTCON
               00158         extern _LVDCON
               00159         extern _OSCCON
               00160         extern _T0CON
               00161         extern _TMR0L
               00162         extern _TMR0H
gpasm-0.13.5 beta               _output/main__mios-gpasm-tmp.asm11-21-2009  19:30:07         PAGE  4


LOC  OBJECT CODE     LINE SOURCE TEXT
  VALUE
 
               00163         extern _STATUS
               00164         extern _FSR2L
               00165         extern _FSR2H
               00166         extern _PLUSW2
               00167         extern _PREINC2
               00168         extern _POSTDEC2
               00169         extern _POSTINC2
               00170         extern _INDF2
               00171         extern _BSR
               00172         extern _FSR1L
               00173         extern _FSR1H
               00174         extern _PLUSW1
               00175         extern _PREINC1
               00176         extern _POSTDEC1
               00177         extern _POSTINC1
               00178         extern _INDF1
               00179         extern _WREG
               00180         extern _FSR0L
               00181         extern _FSR0H
               00182         extern _PLUSW0
               00183         extern _PREINC0
               00184         extern _POSTDEC0
               00185         extern _POSTINC0
               00186         extern _INDF0
               00187         extern _INTCON3
               00188         extern _INTCON2
               00189         extern _INTCON
               00190         extern _PRODL
               00191         extern _PRODH
               00192         extern _TABLAT
               00193         extern _TBLPTRL
               00194         extern _TBLPTRH
               00195         extern _TBLPTRU
               00196         extern _PCL
               00197         extern _PCLATH
               00198         extern _PCLATU
               00199         extern _STKPTR
               00200         extern _TOSL
               00201         extern _TOSH
               00202         extern _TOSU
               00203         extern _MIOS_MIDI_BeginStream
               00204         extern _MIOS_MIDI_EndStream
               00205         extern _MIOS_MIDI_MergerSet
               00206         extern _MIOS_MIDI_TxBufferPut
               00207         extern _MIOS_AIN_DeadbandSet
               00208         extern _MIOS_AIN_Muxed
               00209         extern _MIOS_AIN_NumberSet
               00210         extern _MIOS_AIN_Pin7bitGet
               00211         extern _MIOS_DIN_PinGet
               00212         extern _MIOS_DOUT_PinGet
               00213         extern _MIOS_DOUT_PinSet
               00214         extern _MIOS_DOUT_PinSet1
               00215         extern _MIOS_DOUT_SRSet
               00216         extern _MIOS_SRIO_NumberSet
gpasm-0.13.5 beta               _output/main__mios-gpasm-tmp.asm11-21-2009  19:30:07         PAGE  5


LOC  OBJECT CODE     LINE SOURCE TEXT
  VALUE
 
               00217         extern _MIOS_SRIO_TS_SensitivitySet
               00218         extern _MIOS_SRIO_UpdateFrqSet
               00219         extern _MIOS_SRIO_DebounceSet
               00220         extern _MIOS_LCD_Clear
               00221         extern _MIOS_LCD_CursorSet
               00222         extern _MIOS_LCD_PrintBCD2
               00223         extern _MIOS_LCD_PrintBCD3
               00224         extern _MIOS_LCD_PrintBCD4
               00225         extern _MIOS_LCD_PrintChar
               00226         extern _MIOS_LCD_PrintCString
               00227         extern _MIOS_Delay
               00228         extern __moduint
               00229         extern __mulint
               00230         extern __divsint
               00231         extern _mios_enc_pin_table
               00232         extern _mios_mproc_event_table
               00233         extern _MIOS_MPROC_EVENT_TABLE
               00234         extern _MIOS_ENC_PIN_TABLE
               00235 ;--------------------------------------------------------
               00236 ;       Equates to used internal registers
               00237 ;--------------------------------------------------------
  00000FD8     00238 STATUS  equ     0xfd8
  00000FF9     00239 PCL     equ     0xff9
  00000FFA     00240 PCLATH  equ     0xffa
  00000FFB     00241 PCLATU  equ     0xffb
  00000FE8     00242 WREG    equ     0xfe8
  00000FF6     00243 TBLPTRL equ     0xff6
  00000FF7     00244 TBLPTRH equ     0xff7
  00000FF8     00245 TBLPTRU equ     0xff8
  00000FF5     00246 TABLAT  equ     0xff5
  00000FE1     00247 FSR0L equ 0xfe1 ;; normaly 0xfe9, changed by mios-gpasm
  00000FE2     00248 FSR0H equ 0xfe2 ;; normaly 0xfea, changed by mios-gpasm
  00000FE9     00249 FSR1L equ 0xfe9 ;; normaly 0xfe1, changed by mios-gpasm
  00000FD9     00250 FSR2L   equ     0xfd9
  00000FE7     00251 INDF0 equ 0xfe7 ;; normaly 0xfef, changed by mios-gpasm
  00000FED     00252 POSTDEC1 equ 0xfed ;; normaly 0xfe5, changed by mios-gpasm
  00000FEC     00253 PREINC1 equ 0xfec ;; normaly 0xfe4, changed by mios-gpasm
  00000FDB     00254 PLUSW2  equ     0xfdb
  00000FF3     00255 PRODL   equ     0xff3
               00256 
               00257 
               00258         idata
               00259 _matrix_1       db      0x00, 0x00, 0x00, 0x00, 0x00, 0x00, 0x00, 0x00, 0x00, 0x00, 0x00, 0x00
               00260         db      0x00, 0x00, 0x00, 0x00, 0x00, 0x00, 0x00, 0x00, 0x00, 0x00, 0x00, 0x00
               00261         db      0x00, 0x00, 0x00, 0x00, 0x00, 0x00, 0x00, 0x00, 0x00, 0x00, 0x00, 0x00
               00262         db      0x00, 0x00, 0x00, 0x00, 0x00, 0x00, 0x00, 0x00, 0x00, 0x00, 0x00, 0x00
               00263         db      0x00, 0x00, 0x00, 0x00, 0x00, 0x00, 0x00, 0x00, 0x00, 0x00, 0x00, 0x00
               00264         db      0x00, 0x00, 0x00, 0x00
               00265 _matrix_2       db      0x00, 0x00, 0x00, 0x00, 0x00, 0x00, 0x00, 0x00, 0x00, 0x00, 0x00, 0x00
               00266         db      0x00, 0x00, 0x00, 0x00, 0x00, 0x00, 0x00, 0x00, 0x00, 0x00, 0x00, 0x00
               00267         db      0x00, 0x00, 0x00, 0x00, 0x00, 0x00, 0x00, 0x00, 0x00, 0x00, 0x00, 0x00
               00268         db      0x00, 0x00, 0x00, 0x00, 0x00, 0x00, 0x00, 0x00, 0x00, 0x00, 0x00, 0x00
               00269         db      0x00, 0x00, 0x00, 0x00, 0x00, 0x00, 0x00, 0x00, 0x00, 0x00, 0x00, 0x00
               00270         db      0x00, 0x00, 0x00, 0x00
gpasm-0.13.5 beta               _output/main__mios-gpasm-tmp.asm11-21-2009  19:30:07         PAGE  6


LOC  OBJECT CODE     LINE SOURCE TEXT
  VALUE
 
               00271 
               00272 
               00273 ; Internal registers
               00274 .registers udata_ovr 0x0010 ;; normaly 0x0000, changed by mios-gpasm
               00275 r0x00   res     1
               00276 r0x01   res     1
               00277 r0x02   res     1
               00278 r0x03   res     1
               00279 r0x04   res     1
               00280 r0x05   res     1
               00281 r0x06   res     1
               00282 r0x07   res     1
               00283 r0x08   res     1
               00284 r0x09   res     1
               00285 r0x0a   res     1
               00286 r0x0b   res     1
               00287 r0x0c   res     1
               00288 
               00289 udata_main_0    udata
               00290 _SR_Service_Prepare_row_1_1     res     1
               00291 
               00292 udata_main_1    udata
               00293 _DoStartupPattern_row_1_1       res     2
               00294 
               00295 udata_main_2    udata
               00296 _DoStartupPattern_column_1_1    res     2
               00297 
               00298 udata_main_3    udata
               00299 _DoStartupPattern_color_1_1     res     1
               00300 
               00301 udata_main_4    udata
               00302 _DoShutdownPattern_row_1_1      res     2
               00303 
               00304 udata_main_5    udata
               00305 _DoShutdownPattern_column_1_1   res     2
               00306 
               00307 udata_main_6    udata
               00308 _TestMatrix1_row_1_1    res     2
               00309 
               00310 udata_main_7    udata
               00311 _TestMatrix1_column_1_1 res     2
               00312 
               00313 udata_main_8    udata
               00314 _TestMatrix2_row_1_1    res     2
               00315 
               00316 udata_main_9    udata
               00317 _TestMatrix2_column_1_1 res     2
               00318 
               00319 udata_main_10   udata
               00320 _DoMichaelKnightPattern_column_1_1      res     2
               00321 
               00322 udata_main_11   udata
               00323 _test_mode      res     2
               00324 
gpasm-0.13.5 beta               _output/main__mios-gpasm-tmp.asm11-21-2009  19:30:07         PAGE  7


LOC  OBJECT CODE     LINE SOURCE TEXT
  VALUE
 
               00325 udata_main_12   udata
               00326 _record_sysex   res     2
               00327 
               00328 udata_main_13   udata
               00329 _last_sysex     res     1
               00330 
               00331 udata_main_14   udata
               00332 _clock_ticks    res     2
               00333 
               00334 udata_main_15   udata
               00335 _clock_beats    res     2
               00336 
               00337 udata_main_16   udata
               00338 _clock_bars     res     2
               00339 
               00340 udata_main_17   udata
               00341 _app_flags      res     1
               00342 
               00343 udata_main_18   udata
               00344 _last_ain_pin   res     1
               00345 
               00346 udata_main_19   udata
               00347 _last_din_pin   res     1
               00348 
               00349 udata_main_20   udata
               00350 _last_dout_pin  res     1
               00351 
               00352 ;--------------------------------------------------------
               00353 ; global & static initialisations
               00354 ;--------------------------------------------------------
               00355 ; I code from now on!
               00356 ; ; Starting pCode block
               00357 S_main__DoMichaelKnightPattern  code
0000           00358 _DoMichaelKnightPattern:
               00359 ;       .line   772; main.c     void DoMichaelKnightPattern(void) __wparam
0000 C000 FFED 00360         MOVFF   r0x00, POSTDEC1
0004 C000 FFED 00361         MOVFF   r0x01, POSTDEC1
0008 C000 FFED 00362         MOVFF   r0x02, POSTDEC1
000C C000 FFED 00363         MOVFF   r0x03, POSTDEC1
0010 C000 FFED 00364         MOVFF   r0x04, POSTDEC1
0014 C000 FFED 00365         MOVFF   r0x05, POSTDEC1
               00366 ;       .line   775; main.c     ClearMatrix(1);
0018 0E00      00367         MOVLW   0x00
001A 6EED      00368         MOVWF   POSTDEC1
001C 0E01      00369         MOVLW   0x01
001E EC00 F000 00370         CALL    _ClearMatrix
0022 2AE9      00371         INCF    FSR1L, F
               00372 ;       .line   776; main.c     ClearMatrix(2);
0024 0E00      00373         MOVLW   0x00
0026 6EED      00374         MOVWF   POSTDEC1
0028 0E02      00375         MOVLW   0x02
002A EC00 F000 00376         CALL    _ClearMatrix
002E 2AE9      00377         INCF    FSR1L, F
               00378 ;       .line   777; main.c     for (column = -2; column < 21; column++)
gpasm-0.13.5 beta               _output/main__mios-gpasm-tmp.asm11-21-2009  19:30:07         PAGE  8


LOC  OBJECT CODE     LINE SOURCE TEXT
  VALUE
 
0030 0EFE      00379         MOVLW   0xfe
0032 0000      00380         BANKSEL _DoMichaelKnightPattern_column_1_1
0034 6F00      00381         MOVWF   _DoMichaelKnightPattern_column_1_1, B
0036 0EFF      00382         MOVLW   0xff
               00383 ; removed redundant BANKSEL
0038 6F00      00384         MOVWF   (_DoMichaelKnightPattern_column_1_1 + 1), B
003A           00385 _00572_DS_:
003A 0000      00386         BANKSEL (_DoMichaelKnightPattern_column_1_1 + 1)
003C 5100      00387         MOVF    (_DoMichaelKnightPattern_column_1_1 + 1), W, B
003E 0F80      00388         ADDLW   0x80
0040 0F80      00389         ADDLW   0x80
0042 E100      00390         BNZ     _00582_DS_
0044 0E15      00391         MOVLW   0x15
               00392 ; removed redundant BANKSEL
0046 5D00      00393         SUBWF   _DoMichaelKnightPattern_column_1_1, W, B
0048           00394 _00582_DS_:
0048 B0D8      00395         BTFSC   STATUS, 0
004A EF00 F000 00396         GOTO    _00575_DS_
               00397 ;       .line   779; main.c     MIOS_Delay(50);
004E 0E32      00398         MOVLW   0x32
0050 EC00 F000 00399         CALL    _MIOS_Delay
0054 0000      00400         BANKSEL (_DoMichaelKnightPattern_column_1_1 + 1)
               00401 ;       .line   780; main.c     switch (column)
0056 5100      00402         MOVF    (_DoMichaelKnightPattern_column_1_1 + 1), W, B
0058 0F80      00403         ADDLW   0x80
005A 0F81      00404         ADDLW   0x81
005C E100      00405         BNZ     _00583_DS_
005E 0EFF      00406         MOVLW   0xff
               00407 ; removed redundant BANKSEL
0060 5D00      00408         SUBWF   _DoMichaelKnightPattern_column_1_1, W, B
0062           00409 _00583_DS_:
0062 A0D8      00410         BTFSS   STATUS, 0
0064 EF00 F000 00411         GOTO    _00574_DS_
0068 0000      00412         BANKSEL (_DoMichaelKnightPattern_column_1_1 + 1)
006A 5100      00413         MOVF    (_DoMichaelKnightPattern_column_1_1 + 1), W, B
006C 0F80      00414         ADDLW   0x80
006E 0F80      00415         ADDLW   0x80
0070 E100      00416         BNZ     _00584_DS_
0072 0E12      00417         MOVLW   0x12
               00418 ; removed redundant BANKSEL
0074 5D00      00419         SUBWF   _DoMichaelKnightPattern_column_1_1, W, B
0076           00420 _00584_DS_:
0076 B0D8      00421         BTFSC   STATUS, 0
0078 EF00 F000 00422         GOTO    _00574_DS_
007C 0000      00423         BANKSEL _DoMichaelKnightPattern_column_1_1
007E 2900      00424         INCF    _DoMichaelKnightPattern_column_1_1, W, B
0080 6E00      00425         MOVWF   r0x00
0082 C000 FFED 00426         MOVFF   r0x06, POSTDEC1
0086 C000 FFED 00427         MOVFF   r0x07, POSTDEC1
008A 6A00      00428         CLRF    r0x07
008C 3400      00429         RLCF    r0x00, W
008E 3600      00430         RLCF    r0x07, F
0090 34E8      00431         RLCF    WREG, W
0092 3600      00432         RLCF    r0x07, F
gpasm-0.13.5 beta               _output/main__mios-gpasm-tmp.asm11-21-2009  19:30:07         PAGE  9


LOC  OBJECT CODE     LINE SOURCE TEXT
  VALUE
 
0094 0BFC      00433         ANDLW   0xfc
0096 6E00      00434         MOVWF   r0x06
0098 0E00      00435         MOVLW   UPPER(_00585_DS_)
009A 6EFB      00436         MOVWF   PCLATU
009C 0E00      00437         MOVLW   HIGH(_00585_DS_)
009E 6EFA      00438         MOVWF   PCLATH
00A0 0E00      00439         MOVLW   LOW(_00585_DS_)
00A2 2600      00440         ADDWF   r0x06, F
00A4 5000      00441         MOVF    r0x07, W
00A6 22FA      00442         ADDWFC  PCLATH, F
00A8 B0D8      00443         BTFSC   STATUS, 0
00AA 2AFB      00444         INCF    PCLATU, F
00AC 5000      00445         MOVF    r0x06, W
00AE CFEC F000 00446         MOVFF   PREINC1, r0x07
00B2 CFEC F000 00447         MOVFF   PREINC1, r0x06
00B6 6EF9      00448         MOVWF   PCL
00B8           00449 _00585_DS_:
00B8 EF00 F000 00450         GOTO    _00551_DS_
00BC EF00 F000 00451         GOTO    _00552_DS_
00C0 EF00 F000 00452         GOTO    _00553_DS_
00C4 EF00 F000 00453         GOTO    _00554_DS_
00C8 EF00 F000 00454         GOTO    _00555_DS_
00CC EF00 F000 00455         GOTO    _00556_DS_
00D0 EF00 F000 00456         GOTO    _00557_DS_
00D4 EF00 F000 00457         GOTO    _00558_DS_
00D8 EF00 F000 00458         GOTO    _00559_DS_
00DC EF00 F000 00459         GOTO    _00560_DS_
00E0 EF00 F000 00460         GOTO    _00561_DS_
00E4 EF00 F000 00461         GOTO    _00562_DS_
00E8 EF00 F000 00462         GOTO    _00563_DS_
00EC EF00 F000 00463         GOTO    _00564_DS_
00F0 EF00 F000 00464         GOTO    _00565_DS_
00F4 EF00 F000 00465         GOTO    _00566_DS_
00F8 EF00 F000 00466         GOTO    _00567_DS_
00FC EF00 F000 00467         GOTO    _00568_DS_
0100 EF00 F000 00468         GOTO    _00569_DS_
0104           00469 _00551_DS_:
0104 0000      00470         BANKSEL _DoMichaelKnightPattern_column_1_1
               00471 ;       .line   783; main.c     matrix_2[4][column+1]           = _COLOR_WHITE;
0106 5100      00472         MOVF    _DoMichaelKnightPattern_column_1_1, W, B
0108 6E00      00473         MOVWF   r0x00
010A 2A00      00474         INCF    r0x00, F
010C 0E00      00475         MOVLW   LOW(_matrix_2 + 32)
010E 2400      00476         ADDWF   r0x00, W
0110 6E00      00477         MOVWF   r0x01
0112 6A00      00478         CLRF    r0x02
0114 BE00      00479         BTFSC   r0x00, 7
0116 6800      00480         SETF    r0x02
0118 0E00      00481         MOVLW   HIGH(_matrix_2 + 32)
011A 2200      00482         ADDWFC  r0x02, F
011C C000 FFE1 00483         MOVFF   r0x01, FSR0L
0120 C000 FFE2 00484         MOVFF   r0x02, FSR0H
0124 0E70      00485         MOVLW   0x70
0126 6EE7      00486         MOVWF   INDF0
gpasm-0.13.5 beta               _output/main__mios-gpasm-tmp.asm11-21-2009  19:30:07         PAGE 10


LOC  OBJECT CODE     LINE SOURCE TEXT
  VALUE
 
               00487 ;       .line   784; main.c     matrix_2[6][column+1]           = _COLOR_WHITE;
0128 6A00      00488         CLRF    r0x01
012A BE00      00489         BTFSC   r0x00, 7
012C 6800      00490         SETF    r0x01
012E 0E00      00491         MOVLW   LOW(_matrix_2 + 48)
0130 2600      00492         ADDWF   r0x00, F
0132 0E00      00493         MOVLW   HIGH(_matrix_2 + 48)
0134 2200      00494         ADDWFC  r0x01, F
0136 C000 FFE1 00495         MOVFF   r0x00, FSR0L
013A C000 FFE2 00496         MOVFF   r0x01, FSR0H
013E 0E70      00497         MOVLW   0x70
0140 6EE7      00498         MOVWF   INDF0
               00499 ;       .line   785; main.c     break;
0142 EF00 F000 00500         GOTO    _00574_DS_
0146           00501 _00552_DS_:
0146 0000      00502         BANKSEL _DoMichaelKnightPattern_column_1_1
               00503 ;       .line   787; main.c     matrix_2[4][column+1]           = _COLOR_WHITE;
0148 5100      00504         MOVF    _DoMichaelKnightPattern_column_1_1, W, B
014A 6E00      00505         MOVWF   r0x00
014C 2A00      00506         INCF    r0x00, F
014E 0E00      00507         MOVLW   LOW(_matrix_2 + 32)
0150 2400      00508         ADDWF   r0x00, W
0152 6E00      00509         MOVWF   r0x01
0154 6A00      00510         CLRF    r0x02
0156 BE00      00511         BTFSC   r0x00, 7
0158 6800      00512         SETF    r0x02
015A 0E00      00513         MOVLW   HIGH(_matrix_2 + 32)
015C 2200      00514         ADDWFC  r0x02, F
015E C000 FFE1 00515         MOVFF   r0x01, FSR0L
0162 C000 FFE2 00516         MOVFF   r0x02, FSR0H
0166 0E70      00517         MOVLW   0x70
0168 6EE7      00518         MOVWF   INDF0
               00519 ;       .line   788; main.c     matrix_2[4][column]             = _COLOR_CYAN;
016A C000 F000 00520         MOVFF   _DoMichaelKnightPattern_column_1_1, r0x01
016E C000 F000 00521         MOVFF   (_DoMichaelKnightPattern_column_1_1 + 1), r0x02
0172 0E00      00522         MOVLW   LOW(_matrix_2 + 32)
0174 2600      00523         ADDWF   r0x01, F
0176 0E00      00524         MOVLW   HIGH(_matrix_2 + 32)
0178 2200      00525         ADDWFC  r0x02, F
017A C000 FFE1 00526         MOVFF   r0x01, FSR0L
017E C000 FFE2 00527         MOVFF   r0x02, FSR0H
0182 0E60      00528         MOVLW   0x60
0184 6EE7      00529         MOVWF   INDF0
               00530 ;       .line   789; main.c     matrix_2[6][column+1]           = _COLOR_WHITE;
0186 6A00      00531         CLRF    r0x01
0188 BE00      00532         BTFSC   r0x00, 7
018A 6800      00533         SETF    r0x01
018C 0E00      00534         MOVLW   LOW(_matrix_2 + 48)
018E 2600      00535         ADDWF   r0x00, F
0190 0E00      00536         MOVLW   HIGH(_matrix_2 + 48)
0192 2200      00537         ADDWFC  r0x01, F
0194 C000 FFE1 00538         MOVFF   r0x00, FSR0L
0198 C000 FFE2 00539         MOVFF   r0x01, FSR0H
019C 0E70      00540         MOVLW   0x70
gpasm-0.13.5 beta               _output/main__mios-gpasm-tmp.asm11-21-2009  19:30:07         PAGE 11


LOC  OBJECT CODE     LINE SOURCE TEXT
  VALUE
 
019E 6EE7      00541         MOVWF   INDF0
               00542 ;       .line   790; main.c     matrix_2[6][column]             = _COLOR_CYAN;
01A0 C000 F000 00543         MOVFF   _DoMichaelKnightPattern_column_1_1, r0x00
01A4 C000 F000 00544         MOVFF   (_DoMichaelKnightPattern_column_1_1 + 1), r0x01
01A8 0E00      00545         MOVLW   LOW(_matrix_2 + 48)
01AA 2600      00546         ADDWF   r0x00, F
01AC 0E00      00547         MOVLW   HIGH(_matrix_2 + 48)
01AE 2200      00548         ADDWFC  r0x01, F
01B0 C000 FFE1 00549         MOVFF   r0x00, FSR0L
01B4 C000 FFE2 00550         MOVFF   r0x01, FSR0H
01B8 0E60      00551         MOVLW   0x60
01BA 6EE7      00552         MOVWF   INDF0
               00553 ;       .line   791; main.c     break;
01BC EF00 F000 00554         GOTO    _00574_DS_
01C0           00555 _00553_DS_:
01C0 0000      00556         BANKSEL _DoMichaelKnightPattern_column_1_1
               00557 ;       .line   793; main.c     matrix_2[4][column+1]           = _COLOR_WHITE;
01C2 5100      00558         MOVF    _DoMichaelKnightPattern_column_1_1, W, B
01C4 6E00      00559         MOVWF   r0x00
01C6 2800      00560         INCF    r0x00, W
01C8 6E00      00561         MOVWF   r0x01
01CA 0E00      00562         MOVLW   LOW(_matrix_2 + 32)
01CC 2400      00563         ADDWF   r0x01, W
01CE 6E00      00564         MOVWF   r0x02
01D0 6A00      00565         CLRF    r0x03
01D2 BE00      00566         BTFSC   r0x01, 7
01D4 6800      00567         SETF    r0x03
01D6 0E00      00568         MOVLW   HIGH(_matrix_2 + 32)
01D8 2200      00569         ADDWFC  r0x03, F
01DA C000 FFE1 00570         MOVFF   r0x02, FSR0L
01DE C000 FFE2 00571         MOVFF   r0x03, FSR0H
01E2 0E70      00572         MOVLW   0x70
01E4 6EE7      00573         MOVWF   INDF0
               00574 ;       .line   794; main.c     matrix_2[4][column]             = _COLOR_CYAN;
01E6 C000 F000 00575         MOVFF   _DoMichaelKnightPattern_column_1_1, r0x02
01EA C000 F000 00576         MOVFF   (_DoMichaelKnightPattern_column_1_1 + 1), r0x03
01EE 0E00      00577         MOVLW   LOW(_matrix_2 + 32)
01F0 2600      00578         ADDWF   r0x02, F
01F2 0E00      00579         MOVLW   HIGH(_matrix_2 + 32)
01F4 2200      00580         ADDWFC  r0x03, F
01F6 C000 FFE1 00581         MOVFF   r0x02, FSR0L
01FA C000 FFE2 00582         MOVFF   r0x03, FSR0H
01FE 0E60      00583         MOVLW   0x60
0200 6EE7      00584         MOVWF   INDF0
               00585 ;       .line   795; main.c     matrix_2[4][column-1]           = _COLOR_BLUE;
0202 0600      00586         DECF    r0x00, F
0204 0E00      00587         MOVLW   LOW(_matrix_2 + 32)
0206 2400      00588         ADDWF   r0x00, W
0208 6E00      00589         MOVWF   r0x02
020A 6A00      00590         CLRF    r0x03
020C BE00      00591         BTFSC   r0x00, 7
020E 6800      00592         SETF    r0x03
0210 0E00      00593         MOVLW   HIGH(_matrix_2 + 32)
0212 2200      00594         ADDWFC  r0x03, F
gpasm-0.13.5 beta               _output/main__mios-gpasm-tmp.asm11-21-2009  19:30:07         PAGE 12


LOC  OBJECT CODE     LINE SOURCE TEXT
  VALUE
 
0214 C000 FFE1 00595         MOVFF   r0x02, FSR0L
0218 C000 FFE2 00596         MOVFF   r0x03, FSR0H
021C 0E40      00597         MOVLW   0x40
021E 6EE7      00598         MOVWF   INDF0
               00599 ;       .line   796; main.c     matrix_2[6][column+1]           = _COLOR_WHITE;
0220 6A00      00600         CLRF    r0x02
0222 BE00      00601         BTFSC   r0x01, 7
0224 6800      00602         SETF    r0x02
0226 0E00      00603         MOVLW   LOW(_matrix_2 + 48)
0228 2600      00604         ADDWF   r0x01, F
022A 0E00      00605         MOVLW   HIGH(_matrix_2 + 48)
022C 2200      00606         ADDWFC  r0x02, F
022E C000 FFE1 00607         MOVFF   r0x01, FSR0L
0232 C000 FFE2 00608         MOVFF   r0x02, FSR0H
0236 0E70      00609         MOVLW   0x70
0238 6EE7      00610         MOVWF   INDF0
               00611 ;       .line   797; main.c     matrix_2[6][column]             = _COLOR_CYAN;
023A C000 F000 00612         MOVFF   _DoMichaelKnightPattern_column_1_1, r0x01
023E C000 F000 00613         MOVFF   (_DoMichaelKnightPattern_column_1_1 + 1), r0x02
0242 0E00      00614         MOVLW   LOW(_matrix_2 + 48)
0244 2600      00615         ADDWF   r0x01, F
0246 0E00      00616         MOVLW   HIGH(_matrix_2 + 48)
0248 2200      00617         ADDWFC  r0x02, F
024A C000 FFE1 00618         MOVFF   r0x01, FSR0L
024E C000 FFE2 00619         MOVFF   r0x02, FSR0H
0252 0E60      00620         MOVLW   0x60
0254 6EE7      00621         MOVWF   INDF0
               00622 ;       .line   798; main.c     matrix_2[6][column-1]           = _COLOR_BLUE;
0256 6A00      00623         CLRF    r0x01
0258 BE00      00624         BTFSC   r0x00, 7
025A 6800      00625         SETF    r0x01
025C 0E00      00626         MOVLW   LOW(_matrix_2 + 48)
025E 2600      00627         ADDWF   r0x00, F
0260 0E00      00628         MOVLW   HIGH(_matrix_2 + 48)
0262 2200      00629         ADDWFC  r0x01, F
0264 C000 FFE1 00630         MOVFF   r0x00, FSR0L
0268 C000 FFE2 00631         MOVFF   r0x01, FSR0H
026C 0E40      00632         MOVLW   0x40
026E 6EE7      00633         MOVWF   INDF0
               00634 ;       .line   799; main.c     break;
0270 EF00 F000 00635         GOTO    _00574_DS_
0274           00636 _00554_DS_:
0274 0000      00637         BANKSEL _DoMichaelKnightPattern_column_1_1
               00638 ;       .line   801; main.c     matrix_2[4][column+1]           = _COLOR_WHITE;
0276 5100      00639         MOVF    _DoMichaelKnightPattern_column_1_1, W, B
0278 6E00      00640         MOVWF   r0x00
027A 2800      00641         INCF    r0x00, W
027C 6E00      00642         MOVWF   r0x01
027E 0E00      00643         MOVLW   LOW(_matrix_2 + 32)
0280 2400      00644         ADDWF   r0x01, W
0282 6E00      00645         MOVWF   r0x02
0284 6A00      00646         CLRF    r0x03
0286 BE00      00647         BTFSC   r0x01, 7
0288 6800      00648         SETF    r0x03
gpasm-0.13.5 beta               _output/main__mios-gpasm-tmp.asm11-21-2009  19:30:07         PAGE 13


LOC  OBJECT CODE     LINE SOURCE TEXT
  VALUE
 
028A 0E00      00649         MOVLW   HIGH(_matrix_2 + 32)
028C 2200      00650         ADDWFC  r0x03, F
028E C000 FFE1 00651         MOVFF   r0x02, FSR0L
0292 C000 FFE2 00652         MOVFF   r0x03, FSR0H
0296 0E70      00653         MOVLW   0x70
0298 6EE7      00654         MOVWF   INDF0
               00655 ;       .line   802; main.c     matrix_2[4][column]             = _COLOR_CYAN;
029A C000 F000 00656         MOVFF   _DoMichaelKnightPattern_column_1_1, r0x02
029E C000 F000 00657         MOVFF   (_DoMichaelKnightPattern_column_1_1 + 1), r0x03
02A2 0E00      00658         MOVLW   LOW(_matrix_2 + 32)
02A4 2600      00659         ADDWF   r0x02, F
02A6 0E00      00660         MOVLW   HIGH(_matrix_2 + 32)
02A8 2200      00661         ADDWFC  r0x03, F
02AA C000 FFE1 00662         MOVFF   r0x02, FSR0L
02AE C000 FFE2 00663         MOVFF   r0x03, FSR0H
02B2 0E60      00664         MOVLW   0x60
02B4 6EE7      00665         MOVWF   INDF0
               00666 ;       .line   803; main.c     matrix_2[4][column-1]           = _COLOR_BLUE;
02B6 0400      00667         DECF    r0x00, W
02B8 6E00      00668         MOVWF   r0x02
02BA 0E00      00669         MOVLW   LOW(_matrix_2 + 32)
02BC 2400      00670         ADDWF   r0x02, W
02BE 6E00      00671         MOVWF   r0x03
02C0 6A00      00672         CLRF    r0x04
02C2 BE00      00673         BTFSC   r0x02, 7
02C4 6800      00674         SETF    r0x04
02C6 0E00      00675         MOVLW   HIGH(_matrix_2 + 32)
02C8 2200      00676         ADDWFC  r0x04, F
02CA C000 FFE1 00677         MOVFF   r0x03, FSR0L
02CE C000 FFE2 00678         MOVFF   r0x04, FSR0H
02D2 0E40      00679         MOVLW   0x40
02D4 6EE7      00680         MOVWF   INDF0
               00681 ;       .line   804; main.c     matrix_2[4][column-2]           = _COLOR_OFF;
02D6 0EFE      00682         MOVLW   0xfe
02D8 2600      00683         ADDWF   r0x00, F
02DA 0E00      00684         MOVLW   LOW(_matrix_2 + 32)
02DC 2400      00685         ADDWF   r0x00, W
02DE 6E00      00686         MOVWF   r0x03
02E0 6A00      00687         CLRF    r0x04
02E2 BE00      00688         BTFSC   r0x00, 7
02E4 6800      00689         SETF    r0x04
02E6 0E00      00690         MOVLW   HIGH(_matrix_2 + 32)
02E8 2200      00691         ADDWFC  r0x04, F
02EA C000 FFE1 00692         MOVFF   r0x03, FSR0L
02EE C000 FFE2 00693         MOVFF   r0x04, FSR0H
02F2 0E00      00694         MOVLW   0x00
02F4 6EE7      00695         MOVWF   INDF0
               00696 ;       .line   805; main.c     matrix_2[6][column+1]           = _COLOR_WHITE;
02F6 6A00      00697         CLRF    r0x03
02F8 BE00      00698         BTFSC   r0x01, 7
02FA 6800      00699         SETF    r0x03
02FC 0E00      00700         MOVLW   LOW(_matrix_2 + 48)
02FE 2600      00701         ADDWF   r0x01, F
0300 0E00      00702         MOVLW   HIGH(_matrix_2 + 48)
gpasm-0.13.5 beta               _output/main__mios-gpasm-tmp.asm11-21-2009  19:30:07         PAGE 14


LOC  OBJECT CODE     LINE SOURCE TEXT
  VALUE
 
0302 2200      00703         ADDWFC  r0x03, F
0304 C000 FFE1 00704         MOVFF   r0x01, FSR0L
0308 C000 FFE2 00705         MOVFF   r0x03, FSR0H
030C 0E70      00706         MOVLW   0x70
030E 6EE7      00707         MOVWF   INDF0
               00708 ;       .line   806; main.c     matrix_2[6][column]             = _COLOR_CYAN;
0310 C000 F000 00709         MOVFF   _DoMichaelKnightPattern_column_1_1, r0x01
0314 C000 F000 00710         MOVFF   (_DoMichaelKnightPattern_column_1_1 + 1), r0x03
0318 0E00      00711         MOVLW   LOW(_matrix_2 + 48)
031A 2600      00712         ADDWF   r0x01, F
031C 0E00      00713         MOVLW   HIGH(_matrix_2 + 48)
031E 2200      00714         ADDWFC  r0x03, F
0320 C000 FFE1 00715         MOVFF   r0x01, FSR0L
0324 C000 FFE2 00716         MOVFF   r0x03, FSR0H
0328 0E60      00717         MOVLW   0x60
032A 6EE7      00718         MOVWF   INDF0
               00719 ;       .line   807; main.c     matrix_2[6][column-1]           = _COLOR_BLUE;
032C 6A00      00720         CLRF    r0x01
032E BE00      00721         BTFSC   r0x02, 7
0330 6800      00722         SETF    r0x01
0332 0E00      00723         MOVLW   LOW(_matrix_2 + 48)
0334 2600      00724         ADDWF   r0x02, F
0336 0E00      00725         MOVLW   HIGH(_matrix_2 + 48)
0338 2200      00726         ADDWFC  r0x01, F
033A C000 FFE1 00727         MOVFF   r0x02, FSR0L
033E C000 FFE2 00728         MOVFF   r0x01, FSR0H
0342 0E40      00729         MOVLW   0x40
0344 6EE7      00730         MOVWF   INDF0
               00731 ;       .line   808; main.c     matrix_2[6][column-2]           = _COLOR_OFF;
0346 6A00      00732         CLRF    r0x01
0348 BE00      00733         BTFSC   r0x00, 7
034A 6800      00734         SETF    r0x01
034C 0E00      00735         MOVLW   LOW(_matrix_2 + 48)
034E 2600      00736         ADDWF   r0x00, F
0350 0E00      00737         MOVLW   HIGH(_matrix_2 + 48)
0352 2200      00738         ADDWFC  r0x01, F
0354 C000 FFE1 00739         MOVFF   r0x00, FSR0L
0358 C000 FFE2 00740         MOVFF   r0x01, FSR0H
035C 0E00      00741         MOVLW   0x00
035E 6EE7      00742         MOVWF   INDF0
               00743 ;       .line   809; main.c     break;
0360 EF00 F000 00744         GOTO    _00574_DS_
0364           00745 _00555_DS_:
0364 0000      00746         BANKSEL _DoMichaelKnightPattern_column_1_1
               00747 ;       .line   811; main.c     matrix_2[4][column+1]           = _COLOR_WHITE;
0366 5100      00748         MOVF    _DoMichaelKnightPattern_column_1_1, W, B
0368 6E00      00749         MOVWF   r0x00
036A 2800      00750         INCF    r0x00, W
036C 6E00      00751         MOVWF   r0x01
036E 0E00      00752         MOVLW   LOW(_matrix_2 + 32)
0370 2400      00753         ADDWF   r0x01, W
0372 6E00      00754         MOVWF   r0x02
0374 6A00      00755         CLRF    r0x03
0376 BE00      00756         BTFSC   r0x01, 7
gpasm-0.13.5 beta               _output/main__mios-gpasm-tmp.asm11-21-2009  19:30:07         PAGE 15


LOC  OBJECT CODE     LINE SOURCE TEXT
  VALUE
 
0378 6800      00757         SETF    r0x03
037A 0E00      00758         MOVLW   HIGH(_matrix_2 + 32)
037C 2200      00759         ADDWFC  r0x03, F
037E C000 FFE1 00760         MOVFF   r0x02, FSR0L
0382 C000 FFE2 00761         MOVFF   r0x03, FSR0H
0386 0E70      00762         MOVLW   0x70
0388 6EE7      00763         MOVWF   INDF0
               00764 ;       .line   812; main.c     matrix_2[4][column]             = _COLOR_CYAN;
038A C000 F000 00765         MOVFF   _DoMichaelKnightPattern_column_1_1, r0x02
038E C000 F000 00766         MOVFF   (_DoMichaelKnightPattern_column_1_1 + 1), r0x03
0392 0E00      00767         MOVLW   LOW(_matrix_2 + 32)
0394 2600      00768         ADDWF   r0x02, F
0396 0E00      00769         MOVLW   HIGH(_matrix_2 + 32)
0398 2200      00770         ADDWFC  r0x03, F
039A C000 FFE1 00771         MOVFF   r0x02, FSR0L
039E C000 FFE2 00772         MOVFF   r0x03, FSR0H
03A2 0E60      00773         MOVLW   0x60
03A4 6EE7      00774         MOVWF   INDF0
               00775 ;       .line   813; main.c     matrix_2[4][column-1]           = _COLOR_BLUE;
03A6 0400      00776         DECF    r0x00, W
03A8 6E00      00777         MOVWF   r0x02
03AA 0E00      00778         MOVLW   LOW(_matrix_2 + 32)
03AC 2400      00779         ADDWF   r0x02, W
03AE 6E00      00780         MOVWF   r0x03
03B0 6A00      00781         CLRF    r0x04
03B2 BE00      00782         BTFSC   r0x02, 7
03B4 6800      00783         SETF    r0x04
03B6 0E00      00784         MOVLW   HIGH(_matrix_2 + 32)
03B8 2200      00785         ADDWFC  r0x04, F
03BA C000 FFE1 00786         MOVFF   r0x03, FSR0L
03BE C000 FFE2 00787         MOVFF   r0x04, FSR0H
03C2 0E40      00788         MOVLW   0x40
03C4 6EE7      00789         MOVWF   INDF0
               00790 ;       .line   814; main.c     matrix_2[4][column-2]           = _COLOR_OFF;
03C6 0EFE      00791         MOVLW   0xfe
03C8 2600      00792         ADDWF   r0x00, F
03CA 0E00      00793         MOVLW   LOW(_matrix_2 + 32)
03CC 2400      00794         ADDWF   r0x00, W
03CE 6E00      00795         MOVWF   r0x03
03D0 6A00      00796         CLRF    r0x04
03D2 BE00      00797         BTFSC   r0x00, 7
03D4 6800      00798         SETF    r0x04
03D6 0E00      00799         MOVLW   HIGH(_matrix_2 + 32)
03D8 2200      00800         ADDWFC  r0x04, F
03DA C000 FFE1 00801         MOVFF   r0x03, FSR0L
03DE C000 FFE2 00802         MOVFF   r0x04, FSR0H
03E2 0E00      00803         MOVLW   0x00
03E4 6EE7      00804         MOVWF   INDF0
               00805 ;       .line   815; main.c     matrix_2[6][column+1]           = _COLOR_WHITE;
03E6 6A00      00806         CLRF    r0x03
03E8 BE00      00807         BTFSC   r0x01, 7
03EA 6800      00808         SETF    r0x03
03EC 0E00      00809         MOVLW   LOW(_matrix_2 + 48)
03EE 2600      00810         ADDWF   r0x01, F
gpasm-0.13.5 beta               _output/main__mios-gpasm-tmp.asm11-21-2009  19:30:07         PAGE 16


LOC  OBJECT CODE     LINE SOURCE TEXT
  VALUE
 
03F0 0E00      00811         MOVLW   HIGH(_matrix_2 + 48)
03F2 2200      00812         ADDWFC  r0x03, F
03F4 C000 FFE1 00813         MOVFF   r0x01, FSR0L
03F8 C000 FFE2 00814         MOVFF   r0x03, FSR0H
03FC 0E70      00815         MOVLW   0x70
03FE 6EE7      00816         MOVWF   INDF0
               00817 ;       .line   816; main.c     matrix_2[6][column]             = _COLOR_CYAN;
0400 C000 F000 00818         MOVFF   _DoMichaelKnightPattern_column_1_1, r0x01
0404 C000 F000 00819         MOVFF   (_DoMichaelKnightPattern_column_1_1 + 1), r0x03
0408 0E00      00820         MOVLW   LOW(_matrix_2 + 48)
040A 2600      00821         ADDWF   r0x01, F
040C 0E00      00822         MOVLW   HIGH(_matrix_2 + 48)
040E 2200      00823         ADDWFC  r0x03, F
0410 C000 FFE1 00824         MOVFF   r0x01, FSR0L
0414 C000 FFE2 00825         MOVFF   r0x03, FSR0H
0418 0E60      00826         MOVLW   0x60
041A 6EE7      00827         MOVWF   INDF0
               00828 ;       .line   817; main.c     matrix_2[6][column-1]           = _COLOR_BLUE;
041C 6A00      00829         CLRF    r0x01
041E BE00      00830         BTFSC   r0x02, 7
0420 6800      00831         SETF    r0x01
0422 0E00      00832         MOVLW   LOW(_matrix_2 + 48)
0424 2600      00833         ADDWF   r0x02, F
0426 0E00      00834         MOVLW   HIGH(_matrix_2 + 48)
0428 2200      00835         ADDWFC  r0x01, F
042A C000 FFE1 00836         MOVFF   r0x02, FSR0L
042E C000 FFE2 00837         MOVFF   r0x01, FSR0H
0432 0E40      00838         MOVLW   0x40
0434 6EE7      00839         MOVWF   INDF0
               00840 ;       .line   818; main.c     matrix_2[6][column-2]           = _COLOR_OFF;
0436 6A00      00841         CLRF    r0x01
0438 BE00      00842         BTFSC   r0x00, 7
043A 6800      00843         SETF    r0x01
043C 0E00      00844         MOVLW   LOW(_matrix_2 + 48)
043E 2600      00845         ADDWF   r0x00, F
0440 0E00      00846         MOVLW   HIGH(_matrix_2 + 48)
0442 2200      00847         ADDWFC  r0x01, F
0444 C000 FFE1 00848         MOVFF   r0x00, FSR0L
0448 C000 FFE2 00849         MOVFF   r0x01, FSR0H
044C 0E00      00850         MOVLW   0x00
044E 6EE7      00851         MOVWF   INDF0
               00852 ;       .line   819; main.c     break;
0450 EF00 F000 00853         GOTO    _00574_DS_
0454           00854 _00556_DS_:
0454 0000      00855         BANKSEL _DoMichaelKnightPattern_column_1_1
               00856 ;       .line   821; main.c     matrix_2[4][column+1]           = _COLOR_WHITE;
0456 5100      00857         MOVF    _DoMichaelKnightPattern_column_1_1, W, B
0458 6E00      00858         MOVWF   r0x00
045A 2800      00859         INCF    r0x00, W
045C 6E00      00860         MOVWF   r0x01
045E 0E00      00861         MOVLW   LOW(_matrix_2 + 32)
0460 2400      00862         ADDWF   r0x01, W
0462 6E00      00863         MOVWF   r0x02
0464 6A00      00864         CLRF    r0x03
gpasm-0.13.5 beta               _output/main__mios-gpasm-tmp.asm11-21-2009  19:30:07         PAGE 17


LOC  OBJECT CODE     LINE SOURCE TEXT
  VALUE
 
0466 BE00      00865         BTFSC   r0x01, 7
0468 6800      00866         SETF    r0x03
046A 0E00      00867         MOVLW   HIGH(_matrix_2 + 32)
046C 2200      00868         ADDWFC  r0x03, F
046E C000 FFE1 00869         MOVFF   r0x02, FSR0L
0472 C000 FFE2 00870         MOVFF   r0x03, FSR0H
0476 0E70      00871         MOVLW   0x70
0478 6EE7      00872         MOVWF   INDF0
               00873 ;       .line   822; main.c     matrix_2[4][column]             = _COLOR_CYAN;
047A C000 F000 00874         MOVFF   _DoMichaelKnightPattern_column_1_1, r0x02
047E C000 F000 00875         MOVFF   (_DoMichaelKnightPattern_column_1_1 + 1), r0x03
0482 0E00      00876         MOVLW   LOW(_matrix_2 + 32)
0484 2600      00877         ADDWF   r0x02, F
0486 0E00      00878         MOVLW   HIGH(_matrix_2 + 32)
0488 2200      00879         ADDWFC  r0x03, F
048A C000 FFE1 00880         MOVFF   r0x02, FSR0L
048E C000 FFE2 00881         MOVFF   r0x03, FSR0H
0492 0E60      00882         MOVLW   0x60
0494 6EE7      00883         MOVWF   INDF0
               00884 ;       .line   823; main.c     matrix_2[4][column-1]           = _COLOR_BLUE;
0496 0400      00885         DECF    r0x00, W
0498 6E00      00886         MOVWF   r0x02
049A 0E00      00887         MOVLW   LOW(_matrix_2 + 32)
049C 2400      00888         ADDWF   r0x02, W
049E 6E00      00889         MOVWF   r0x03
04A0 6A00      00890         CLRF    r0x04
04A2 BE00      00891         BTFSC   r0x02, 7
04A4 6800      00892         SETF    r0x04
04A6 0E00      00893         MOVLW   HIGH(_matrix_2 + 32)
04A8 2200      00894         ADDWFC  r0x04, F
04AA C000 FFE1 00895         MOVFF   r0x03, FSR0L
04AE C000 FFE2 00896         MOVFF   r0x04, FSR0H
04B2 0E40      00897         MOVLW   0x40
04B4 6EE7      00898         MOVWF   INDF0
               00899 ;       .line   824; main.c     matrix_2[4][column-2]           = _COLOR_OFF;
04B6 0EFE      00900         MOVLW   0xfe
04B8 2600      00901         ADDWF   r0x00, F
04BA 0E00      00902         MOVLW   LOW(_matrix_2 + 32)
04BC 2400      00903         ADDWF   r0x00, W
04BE 6E00      00904         MOVWF   r0x03
04C0 6A00      00905         CLRF    r0x04
04C2 BE00      00906         BTFSC   r0x00, 7
04C4 6800      00907         SETF    r0x04
04C6 0E00      00908         MOVLW   HIGH(_matrix_2 + 32)
04C8 2200      00909         ADDWFC  r0x04, F
04CA C000 FFE1 00910         MOVFF   r0x03, FSR0L
04CE C000 FFE2 00911         MOVFF   r0x04, FSR0H
04D2 0E00      00912         MOVLW   0x00
04D4 6EE7      00913         MOVWF   INDF0
               00914 ;       .line   825; main.c     matrix_2[6][column+1]           = _COLOR_WHITE;
04D6 6A00      00915         CLRF    r0x03
04D8 BE00      00916         BTFSC   r0x01, 7
04DA 6800      00917         SETF    r0x03
04DC 0E00      00918         MOVLW   LOW(_matrix_2 + 48)
gpasm-0.13.5 beta               _output/main__mios-gpasm-tmp.asm11-21-2009  19:30:07         PAGE 18


LOC  OBJECT CODE     LINE SOURCE TEXT
  VALUE
 
04DE 2600      00919         ADDWF   r0x01, F
04E0 0E00      00920         MOVLW   HIGH(_matrix_2 + 48)
04E2 2200      00921         ADDWFC  r0x03, F
04E4 C000 FFE1 00922         MOVFF   r0x01, FSR0L
04E8 C000 FFE2 00923         MOVFF   r0x03, FSR0H
04EC 0E70      00924         MOVLW   0x70
04EE 6EE7      00925         MOVWF   INDF0
               00926 ;       .line   826; main.c     matrix_2[6][column]             = _COLOR_CYAN;
04F0 C000 F000 00927         MOVFF   _DoMichaelKnightPattern_column_1_1, r0x01
04F4 C000 F000 00928         MOVFF   (_DoMichaelKnightPattern_column_1_1 + 1), r0x03
04F8 0E00      00929         MOVLW   LOW(_matrix_2 + 48)
04FA 2600      00930         ADDWF   r0x01, F
04FC 0E00      00931         MOVLW   HIGH(_matrix_2 + 48)
04FE 2200      00932         ADDWFC  r0x03, F
0500 C000 FFE1 00933         MOVFF   r0x01, FSR0L
0504 C000 FFE2 00934         MOVFF   r0x03, FSR0H
0508 0E60      00935         MOVLW   0x60
050A 6EE7      00936         MOVWF   INDF0
               00937 ;       .line   827; main.c     matrix_2[6][column-1]           = _COLOR_BLUE;
050C 6A00      00938         CLRF    r0x01
050E BE00      00939         BTFSC   r0x02, 7
0510 6800      00940         SETF    r0x01
0512 0E00      00941         MOVLW   LOW(_matrix_2 + 48)
0514 2600      00942         ADDWF   r0x02, F
0516 0E00      00943         MOVLW   HIGH(_matrix_2 + 48)
0518 2200      00944         ADDWFC  r0x01, F
051A C000 FFE1 00945         MOVFF   r0x02, FSR0L
051E C000 FFE2 00946         MOVFF   r0x01, FSR0H
0522 0E40      00947         MOVLW   0x40
0524 6EE7      00948         MOVWF   INDF0
               00949 ;       .line   828; main.c     matrix_2[6][column-2]           = _COLOR_OFF;
0526 6A00      00950         CLRF    r0x01
0528 BE00      00951         BTFSC   r0x00, 7
052A 6800      00952         SETF    r0x01
052C 0E00      00953         MOVLW   LOW(_matrix_2 + 48)
052E 2600      00954         ADDWF   r0x00, F
0530 0E00      00955         MOVLW   HIGH(_matrix_2 + 48)
0532 2200      00956         ADDWFC  r0x01, F
0534 C000 FFE1 00957         MOVFF   r0x00, FSR0L
0538 C000 FFE2 00958         MOVFF   r0x01, FSR0H
053C 0E00      00959         MOVLW   0x00
053E 6EE7      00960         MOVWF   INDF0
               00961 ;       .line   829; main.c     break;
0540 EF00 F000 00962         GOTO    _00574_DS_
0544           00963 _00557_DS_:
0544 0000      00964         BANKSEL _DoMichaelKnightPattern_column_1_1
               00965 ;       .line   831; main.c     matrix_2[4][column+1]           = _COLOR_WHITE;
0546 5100      00966         MOVF    _DoMichaelKnightPattern_column_1_1, W, B
0548 6E00      00967         MOVWF   r0x00
054A 2800      00968         INCF    r0x00, W
054C 6E00      00969         MOVWF   r0x01
054E 0E00      00970         MOVLW   LOW(_matrix_2 + 32)
0550 2400      00971         ADDWF   r0x01, W
0552 6E00      00972         MOVWF   r0x02
gpasm-0.13.5 beta               _output/main__mios-gpasm-tmp.asm11-21-2009  19:30:07         PAGE 19


LOC  OBJECT CODE     LINE SOURCE TEXT
  VALUE
 
0554 6A00      00973         CLRF    r0x03
0556 BE00      00974         BTFSC   r0x01, 7
0558 6800      00975         SETF    r0x03
055A 0E00      00976         MOVLW   HIGH(_matrix_2 + 32)
055C 2200      00977         ADDWFC  r0x03, F
055E C000 FFE1 00978         MOVFF   r0x02, FSR0L
0562 C000 FFE2 00979         MOVFF   r0x03, FSR0H
0566 0E70      00980         MOVLW   0x70
0568 6EE7      00981         MOVWF   INDF0
               00982 ;       .line   832; main.c     matrix_2[4][column]             = _COLOR_CYAN;
056A C000 F000 00983         MOVFF   _DoMichaelKnightPattern_column_1_1, r0x02
056E C000 F000 00984         MOVFF   (_DoMichaelKnightPattern_column_1_1 + 1), r0x03
0572 0E00      00985         MOVLW   LOW(_matrix_2 + 32)
0574 2600      00986         ADDWF   r0x02, F
0576 0E00      00987         MOVLW   HIGH(_matrix_2 + 32)
0578 2200      00988         ADDWFC  r0x03, F
057A C000 FFE1 00989         MOVFF   r0x02, FSR0L
057E C000 FFE2 00990         MOVFF   r0x03, FSR0H
0582 0E60      00991         MOVLW   0x60
0584 6EE7      00992         MOVWF   INDF0
               00993 ;       .line   833; main.c     matrix_2[4][column-1]           = _COLOR_BLUE;
0586 0400      00994         DECF    r0x00, W
0588 6E00      00995         MOVWF   r0x02
058A 0E00      00996         MOVLW   LOW(_matrix_2 + 32)
058C 2400      00997         ADDWF   r0x02, W
058E 6E00      00998         MOVWF   r0x03
0590 6A00      00999         CLRF    r0x04
0592 BE00      01000         BTFSC   r0x02, 7
0594 6800      01001         SETF    r0x04
0596 0E00      01002         MOVLW   HIGH(_matrix_2 + 32)
0598 2200      01003         ADDWFC  r0x04, F
059A C000 FFE1 01004         MOVFF   r0x03, FSR0L
059E C000 FFE2 01005         MOVFF   r0x04, FSR0H
05A2 0E40      01006         MOVLW   0x40
05A4 6EE7      01007         MOVWF   INDF0
               01008 ;       .line   834; main.c     matrix_2[4][column-2]           = _COLOR_OFF;
05A6 0EFE      01009         MOVLW   0xfe
05A8 2600      01010         ADDWF   r0x00, F
05AA 0E00      01011         MOVLW   LOW(_matrix_2 + 32)
05AC 2400      01012         ADDWF   r0x00, W
05AE 6E00      01013         MOVWF   r0x03
05B0 6A00      01014         CLRF    r0x04
05B2 BE00      01015         BTFSC   r0x00, 7
05B4 6800      01016         SETF    r0x04
05B6 0E00      01017         MOVLW   HIGH(_matrix_2 + 32)
05B8 2200      01018         ADDWFC  r0x04, F
05BA C000 FFE1 01019         MOVFF   r0x03, FSR0L
05BE C000 FFE2 01020         MOVFF   r0x04, FSR0H
05C2 0E00      01021         MOVLW   0x00
05C4 6EE7      01022         MOVWF   INDF0
               01023 ;       .line   835; main.c     matrix_2[6][column+1]           = _COLOR_WHITE;
05C6 6A00      01024         CLRF    r0x03
05C8 BE00      01025         BTFSC   r0x01, 7
05CA 6800      01026         SETF    r0x03
gpasm-0.13.5 beta               _output/main__mios-gpasm-tmp.asm11-21-2009  19:30:07         PAGE 20


LOC  OBJECT CODE     LINE SOURCE TEXT
  VALUE
 
05CC 0E00      01027         MOVLW   LOW(_matrix_2 + 48)
05CE 2600      01028         ADDWF   r0x01, F
05D0 0E00      01029         MOVLW   HIGH(_matrix_2 + 48)
05D2 2200      01030         ADDWFC  r0x03, F
05D4 C000 FFE1 01031         MOVFF   r0x01, FSR0L
05D8 C000 FFE2 01032         MOVFF   r0x03, FSR0H
05DC 0E70      01033         MOVLW   0x70
05DE 6EE7      01034         MOVWF   INDF0
               01035 ;       .line   836; main.c     matrix_2[6][column]             = _COLOR_CYAN;
05E0 C000 F000 01036         MOVFF   _DoMichaelKnightPattern_column_1_1, r0x01
05E4 C000 F000 01037         MOVFF   (_DoMichaelKnightPattern_column_1_1 + 1), r0x03
05E8 0E00      01038         MOVLW   LOW(_matrix_2 + 48)
05EA 2600      01039         ADDWF   r0x01, F
05EC 0E00      01040         MOVLW   HIGH(_matrix_2 + 48)
05EE 2200      01041         ADDWFC  r0x03, F
05F0 C000 FFE1 01042         MOVFF   r0x01, FSR0L
05F4 C000 FFE2 01043         MOVFF   r0x03, FSR0H
05F8 0E60      01044         MOVLW   0x60
05FA 6EE7      01045         MOVWF   INDF0
               01046 ;       .line   837; main.c     matrix_2[6][column-1]           = _COLOR_BLUE;
05FC 6A00      01047         CLRF    r0x01
05FE BE00      01048         BTFSC   r0x02, 7
0600 6800      01049         SETF    r0x01
0602 0E00      01050         MOVLW   LOW(_matrix_2 + 48)
0604 2600      01051         ADDWF   r0x02, F
0606 0E00      01052         MOVLW   HIGH(_matrix_2 + 48)
0608 2200      01053         ADDWFC  r0x01, F
060A C000 FFE1 01054         MOVFF   r0x02, FSR0L
060E C000 FFE2 01055         MOVFF   r0x01, FSR0H
0612 0E40      01056         MOVLW   0x40
0614 6EE7      01057         MOVWF   INDF0
               01058 ;       .line   838; main.c     matrix_2[6][column-2]           = _COLOR_OFF;
0616 6A00      01059         CLRF    r0x01
0618 BE00      01060         BTFSC   r0x00, 7
061A 6800      01061         SETF    r0x01
061C 0E00      01062         MOVLW   LOW(_matrix_2 + 48)
061E 2600      01063         ADDWF   r0x00, F
0620 0E00      01064         MOVLW   HIGH(_matrix_2 + 48)
0622 2200      01065         ADDWFC  r0x01, F
0624 C000 FFE1 01066         MOVFF   r0x00, FSR0L
0628 C000 FFE2 01067         MOVFF   r0x01, FSR0H
062C 0E00      01068         MOVLW   0x00
062E 6EE7      01069         MOVWF   INDF0
               01070 ;       .line   839; main.c     break;
0630 EF00 F000 01071         GOTO    _00574_DS_
0634           01072 _00558_DS_:
0634 0000      01073         BANKSEL _DoMichaelKnightPattern_column_1_1
               01074 ;       .line   841; main.c     matrix_2[4][column+1]           = _COLOR_WHITE;
0636 5100      01075         MOVF    _DoMichaelKnightPattern_column_1_1, W, B
0638 6E00      01076         MOVWF   r0x00
063A 2800      01077         INCF    r0x00, W
063C 6E00      01078         MOVWF   r0x01
063E 0E00      01079         MOVLW   LOW(_matrix_2 + 32)
0640 2400      01080         ADDWF   r0x01, W
gpasm-0.13.5 beta               _output/main__mios-gpasm-tmp.asm11-21-2009  19:30:07         PAGE 21


LOC  OBJECT CODE     LINE SOURCE TEXT
  VALUE
 
0642 6E00      01081         MOVWF   r0x02
0644 6A00      01082         CLRF    r0x03
0646 BE00      01083         BTFSC   r0x01, 7
0648 6800      01084         SETF    r0x03
064A 0E00      01085         MOVLW   HIGH(_matrix_2 + 32)
064C 2200      01086         ADDWFC  r0x03, F
064E C000 FFE1 01087         MOVFF   r0x02, FSR0L
0652 C000 FFE2 01088         MOVFF   r0x03, FSR0H
0656 0E70      01089         MOVLW   0x70
0658 6EE7      01090         MOVWF   INDF0
               01091 ;       .line   842; main.c     matrix_2[4][column]             = _COLOR_CYAN;
065A C000 F000 01092         MOVFF   _DoMichaelKnightPattern_column_1_1, r0x02
065E C000 F000 01093         MOVFF   (_DoMichaelKnightPattern_column_1_1 + 1), r0x03
0662 0E00      01094         MOVLW   LOW(_matrix_2 + 32)
0664 2600      01095         ADDWF   r0x02, F
0666 0E00      01096         MOVLW   HIGH(_matrix_2 + 32)
0668 2200      01097         ADDWFC  r0x03, F
066A C000 FFE1 01098         MOVFF   r0x02, FSR0L
066E C000 FFE2 01099         MOVFF   r0x03, FSR0H
0672 0E60      01100         MOVLW   0x60
0674 6EE7      01101         MOVWF   INDF0
               01102 ;       .line   843; main.c     matrix_2[4][column-1]           = _COLOR_BLUE;
0676 0400      01103         DECF    r0x00, W
0678 6E00      01104         MOVWF   r0x02
067A 0E00      01105         MOVLW   LOW(_matrix_2 + 32)
067C 2400      01106         ADDWF   r0x02, W
067E 6E00      01107         MOVWF   r0x03
0680 6A00      01108         CLRF    r0x04
0682 BE00      01109         BTFSC   r0x02, 7
0684 6800      01110         SETF    r0x04
0686 0E00      01111         MOVLW   HIGH(_matrix_2 + 32)
0688 2200      01112         ADDWFC  r0x04, F
068A C000 FFE1 01113         MOVFF   r0x03, FSR0L
068E C000 FFE2 01114         MOVFF   r0x04, FSR0H
0692 0E40      01115         MOVLW   0x40
0694 6EE7      01116         MOVWF   INDF0
               01117 ;       .line   844; main.c     matrix_2[4][column-2]           = _COLOR_OFF;
0696 0EFE      01118         MOVLW   0xfe
0698 2600      01119         ADDWF   r0x00, F
069A 0E00      01120         MOVLW   LOW(_matrix_2 + 32)
069C 2400      01121         ADDWF   r0x00, W
069E 6E00      01122         MOVWF   r0x03
06A0 6A00      01123         CLRF    r0x04
06A2 BE00      01124         BTFSC   r0x00, 7
06A4 6800      01125         SETF    r0x04
06A6 0E00      01126         MOVLW   HIGH(_matrix_2 + 32)
06A8 2200      01127         ADDWFC  r0x04, F
06AA C000 FFE1 01128         MOVFF   r0x03, FSR0L
06AE C000 FFE2 01129         MOVFF   r0x04, FSR0H
06B2 0E00      01130         MOVLW   0x00
06B4 6EE7      01131         MOVWF   INDF0
               01132 ;       .line   845; main.c     matrix_2[6][column+1]           = _COLOR_WHITE;
06B6 6A00      01133         CLRF    r0x03
06B8 BE00      01134         BTFSC   r0x01, 7
gpasm-0.13.5 beta               _output/main__mios-gpasm-tmp.asm11-21-2009  19:30:07         PAGE 22


LOC  OBJECT CODE     LINE SOURCE TEXT
  VALUE
 
06BA 6800      01135         SETF    r0x03
06BC 0E00      01136         MOVLW   LOW(_matrix_2 + 48)
06BE 2600      01137         ADDWF   r0x01, F
06C0 0E00      01138         MOVLW   HIGH(_matrix_2 + 48)
06C2 2200      01139         ADDWFC  r0x03, F
06C4 C000 FFE1 01140         MOVFF   r0x01, FSR0L
06C8 C000 FFE2 01141         MOVFF   r0x03, FSR0H
06CC 0E70      01142         MOVLW   0x70
06CE 6EE7      01143         MOVWF   INDF0
               01144 ;       .line   846; main.c     matrix_2[6][column]             = _COLOR_CYAN;
06D0 C000 F000 01145         MOVFF   _DoMichaelKnightPattern_column_1_1, r0x01
06D4 C000 F000 01146         MOVFF   (_DoMichaelKnightPattern_column_1_1 + 1), r0x03
06D8 0E00      01147         MOVLW   LOW(_matrix_2 + 48)
06DA 2600      01148         ADDWF   r0x01, F
06DC 0E00      01149         MOVLW   HIGH(_matrix_2 + 48)
06DE 2200      01150         ADDWFC  r0x03, F
06E0 C000 FFE1 01151         MOVFF   r0x01, FSR0L
06E4 C000 FFE2 01152         MOVFF   r0x03, FSR0H
06E8 0E60      01153         MOVLW   0x60
06EA 6EE7      01154         MOVWF   INDF0
               01155 ;       .line   847; main.c     matrix_2[6][column-1]           = _COLOR_BLUE;
06EC 6A00      01156         CLRF    r0x01
06EE BE00      01157         BTFSC   r0x02, 7
06F0 6800      01158         SETF    r0x01
06F2 0E00      01159         MOVLW   LOW(_matrix_2 + 48)
06F4 2600      01160         ADDWF   r0x02, F
06F6 0E00      01161         MOVLW   HIGH(_matrix_2 + 48)
06F8 2200      01162         ADDWFC  r0x01, F
06FA C000 FFE1 01163         MOVFF   r0x02, FSR0L
06FE C000 FFE2 01164         MOVFF   r0x01, FSR0H
0702 0E40      01165         MOVLW   0x40
0704 6EE7      01166         MOVWF   INDF0
               01167 ;       .line   848; main.c     matrix_2[6][column-2]           = _COLOR_OFF;
0706 6A00      01168         CLRF    r0x01
0708 BE00      01169         BTFSC   r0x00, 7
070A 6800      01170         SETF    r0x01
070C 0E00      01171         MOVLW   LOW(_matrix_2 + 48)
070E 2600      01172         ADDWF   r0x00, F
0710 0E00      01173         MOVLW   HIGH(_matrix_2 + 48)
0712 2200      01174         ADDWFC  r0x01, F
0714 C000 FFE1 01175         MOVFF   r0x00, FSR0L
0718 C000 FFE2 01176         MOVFF   r0x01, FSR0H
071C 0E00      01177         MOVLW   0x00
071E 6EE7      01178         MOVWF   INDF0
               01179 ;       .line   849; main.c     break;
0720 EF00 F000 01180         GOTO    _00574_DS_
0724           01181 _00559_DS_:
0724 0000      01182         BANKSEL _DoMichaelKnightPattern_column_1_1
               01183 ;       .line   851; main.c     matrix_2[5][column-8+1] = _COLOR_WHITE;
0726 5100      01184         MOVF    _DoMichaelKnightPattern_column_1_1, W, B
0728 6E00      01185         MOVWF   r0x00
072A 0EF9      01186         MOVLW   0xf9
072C 2400      01187         ADDWF   r0x00, W
072E 6E00      01188         MOVWF   r0x01
gpasm-0.13.5 beta               _output/main__mios-gpasm-tmp.asm11-21-2009  19:30:07         PAGE 23


LOC  OBJECT CODE     LINE SOURCE TEXT
  VALUE
 
0730 0E00      01189         MOVLW   LOW(_matrix_2 + 40)
0732 2400      01190         ADDWF   r0x01, W
0734 6E00      01191         MOVWF   r0x02
0736 6A00      01192         CLRF    r0x03
0738 BE00      01193         BTFSC   r0x01, 7
073A 6800      01194         SETF    r0x03
073C 0E00      01195         MOVLW   HIGH(_matrix_2 + 40)
073E 2200      01196         ADDWFC  r0x03, F
0740 C000 FFE1 01197         MOVFF   r0x02, FSR0L
0744 C000 FFE2 01198         MOVFF   r0x03, FSR0H
0748 0E70      01199         MOVLW   0x70
074A 6EE7      01200         MOVWF   INDF0
               01201 ;       .line   852; main.c     matrix_2[4][column]             = _COLOR_CYAN;
074C C000 F000 01202         MOVFF   _DoMichaelKnightPattern_column_1_1, r0x02
0750 C000 F000 01203         MOVFF   (_DoMichaelKnightPattern_column_1_1 + 1), r0x03
0754 0E00      01204         MOVLW   LOW(_matrix_2 + 32)
0756 2600      01205         ADDWF   r0x02, F
0758 0E00      01206         MOVLW   HIGH(_matrix_2 + 32)
075A 2200      01207         ADDWFC  r0x03, F
075C C000 FFE1 01208         MOVFF   r0x02, FSR0L
0760 C000 FFE2 01209         MOVFF   r0x03, FSR0H
0764 0E60      01210         MOVLW   0x60
0766 6EE7      01211         MOVWF   INDF0
               01212 ;       .line   853; main.c     matrix_2[4][column-1]           = _COLOR_BLUE;
0768 0400      01213         DECF    r0x00, W
076A 6E00      01214         MOVWF   r0x02
076C 0E00      01215         MOVLW   LOW(_matrix_2 + 32)
076E 2400      01216         ADDWF   r0x02, W
0770 6E00      01217         MOVWF   r0x03
0772 6A00      01218         CLRF    r0x04
0774 BE00      01219         BTFSC   r0x02, 7
0776 6800      01220         SETF    r0x04
0778 0E00      01221         MOVLW   HIGH(_matrix_2 + 32)
077A 2200      01222         ADDWFC  r0x04, F
077C C000 FFE1 01223         MOVFF   r0x03, FSR0L
0780 C000 FFE2 01224         MOVFF   r0x04, FSR0H
0784 0E40      01225         MOVLW   0x40
0786 6EE7      01226         MOVWF   INDF0
               01227 ;       .line   854; main.c     matrix_2[4][column-2]           = _COLOR_OFF;
0788 0EFE      01228         MOVLW   0xfe
078A 2600      01229         ADDWF   r0x00, F
078C 0E00      01230         MOVLW   LOW(_matrix_2 + 32)
078E 2400      01231         ADDWF   r0x00, W
0790 6E00      01232         MOVWF   r0x03
0792 6A00      01233         CLRF    r0x04
0794 BE00      01234         BTFSC   r0x00, 7
0796 6800      01235         SETF    r0x04
0798 0E00      01236         MOVLW   HIGH(_matrix_2 + 32)
079A 2200      01237         ADDWFC  r0x04, F
079C C000 FFE1 01238         MOVFF   r0x03, FSR0L
07A0 C000 FFE2 01239         MOVFF   r0x04, FSR0H
07A4 0E00      01240         MOVLW   0x00
07A6 6EE7      01241         MOVWF   INDF0
               01242 ;       .line   855; main.c     matrix_2[7][column-8+1] = _COLOR_WHITE;
gpasm-0.13.5 beta               _output/main__mios-gpasm-tmp.asm11-21-2009  19:30:07         PAGE 24


LOC  OBJECT CODE     LINE SOURCE TEXT
  VALUE
 
07A8 6A00      01243         CLRF    r0x03
07AA BE00      01244         BTFSC   r0x01, 7
07AC 6800      01245         SETF    r0x03
07AE 0E00      01246         MOVLW   LOW(_matrix_2 + 56)
07B0 2600      01247         ADDWF   r0x01, F
07B2 0E00      01248         MOVLW   HIGH(_matrix_2 + 56)
07B4 2200      01249         ADDWFC  r0x03, F
07B6 C000 FFE1 01250         MOVFF   r0x01, FSR0L
07BA C000 FFE2 01251         MOVFF   r0x03, FSR0H
07BE 0E70      01252         MOVLW   0x70
07C0 6EE7      01253         MOVWF   INDF0
               01254 ;       .line   856; main.c     matrix_2[6][column]             = _COLOR_CYAN;
07C2 C000 F000 01255         MOVFF   _DoMichaelKnightPattern_column_1_1, r0x01
07C6 C000 F000 01256         MOVFF   (_DoMichaelKnightPattern_column_1_1 + 1), r0x03
07CA 0E00      01257         MOVLW   LOW(_matrix_2 + 48)
07CC 2600      01258         ADDWF   r0x01, F
07CE 0E00      01259         MOVLW   HIGH(_matrix_2 + 48)
07D0 2200      01260         ADDWFC  r0x03, F
07D2 C000 FFE1 01261         MOVFF   r0x01, FSR0L
07D6 C000 FFE2 01262         MOVFF   r0x03, FSR0H
07DA 0E60      01263         MOVLW   0x60
07DC 6EE7      01264         MOVWF   INDF0
               01265 ;       .line   857; main.c     matrix_2[6][column-1]           = _COLOR_BLUE;
07DE 6A00      01266         CLRF    r0x01
07E0 BE00      01267         BTFSC   r0x02, 7
07E2 6800      01268         SETF    r0x01
07E4 0E00      01269         MOVLW   LOW(_matrix_2 + 48)
07E6 2600      01270         ADDWF   r0x02, F
07E8 0E00      01271         MOVLW   HIGH(_matrix_2 + 48)
07EA 2200      01272         ADDWFC  r0x01, F
07EC C000 FFE1 01273         MOVFF   r0x02, FSR0L
07F0 C000 FFE2 01274         MOVFF   r0x01, FSR0H
07F4 0E40      01275         MOVLW   0x40
07F6 6EE7      01276         MOVWF   INDF0
               01277 ;       .line   858; main.c     matrix_2[6][column-2]           = _COLOR_OFF;
07F8 6A00      01278         CLRF    r0x01
07FA BE00      01279         BTFSC   r0x00, 7
07FC 6800      01280         SETF    r0x01
07FE 0E00      01281         MOVLW   LOW(_matrix_2 + 48)
0800 2600      01282         ADDWF   r0x00, F
0802 0E00      01283         MOVLW   HIGH(_matrix_2 + 48)
0804 2200      01284         ADDWFC  r0x01, F
0806 C000 FFE1 01285         MOVFF   r0x00, FSR0L
080A C000 FFE2 01286         MOVFF   r0x01, FSR0H
080E 0E00      01287         MOVLW   0x00
0810 6EE7      01288         MOVWF   INDF0
               01289 ;       .line   859; main.c     break;
0812 EF00 F000 01290         GOTO    _00574_DS_
0816           01291 _00560_DS_:
0816 0000      01292         BANKSEL _DoMichaelKnightPattern_column_1_1
               01293 ;       .line   861; main.c     matrix_2[5][column-8+1] = _COLOR_WHITE;
0818 5100      01294         MOVF    _DoMichaelKnightPattern_column_1_1, W, B
081A 6E00      01295         MOVWF   r0x00
081C 0EF9      01296         MOVLW   0xf9
gpasm-0.13.5 beta               _output/main__mios-gpasm-tmp.asm11-21-2009  19:30:07         PAGE 25


LOC  OBJECT CODE     LINE SOURCE TEXT
  VALUE
 
081E 2400      01297         ADDWF   r0x00, W
0820 6E00      01298         MOVWF   r0x01
0822 0E00      01299         MOVLW   LOW(_matrix_2 + 40)
0824 2400      01300         ADDWF   r0x01, W
0826 6E00      01301         MOVWF   r0x02
0828 6A00      01302         CLRF    r0x03
082A BE00      01303         BTFSC   r0x01, 7
082C 6800      01304         SETF    r0x03
082E 0E00      01305         MOVLW   HIGH(_matrix_2 + 40)
0830 2200      01306         ADDWFC  r0x03, F
0832 C000 FFE1 01307         MOVFF   r0x02, FSR0L
0836 C000 FFE2 01308         MOVFF   r0x03, FSR0H
083A 0E70      01309         MOVLW   0x70
083C 6EE7      01310         MOVWF   INDF0
               01311 ;       .line   862; main.c     matrix_2[5][column-8]           = _COLOR_CYAN;
083E 0EF8      01312         MOVLW   0xf8
0840 2400      01313         ADDWF   r0x00, W
0842 6E00      01314         MOVWF   r0x02
0844 0E00      01315         MOVLW   LOW(_matrix_2 + 40)
0846 2400      01316         ADDWF   r0x02, W
0848 6E00      01317         MOVWF   r0x03
084A 6A00      01318         CLRF    r0x04
084C BE00      01319         BTFSC   r0x02, 7
084E 6800      01320         SETF    r0x04
0850 0E00      01321         MOVLW   HIGH(_matrix_2 + 40)
0852 2200      01322         ADDWFC  r0x04, F
0854 C000 FFE1 01323         MOVFF   r0x03, FSR0L
0858 C000 FFE2 01324         MOVFF   r0x04, FSR0H
085C 0E60      01325         MOVLW   0x60
085E 6EE7      01326         MOVWF   INDF0
               01327 ;       .line   863; main.c     matrix_2[4][column-1]           = _COLOR_BLUE;
0860 0400      01328         DECF    r0x00, W
0862 6E00      01329         MOVWF   r0x03
0864 0E00      01330         MOVLW   LOW(_matrix_2 + 32)
0866 2400      01331         ADDWF   r0x03, W
0868 6E00      01332         MOVWF   r0x04
086A 6A00      01333         CLRF    r0x05
086C BE00      01334         BTFSC   r0x03, 7
086E 6800      01335         SETF    r0x05
0870 0E00      01336         MOVLW   HIGH(_matrix_2 + 32)
0872 2200      01337         ADDWFC  r0x05, F
0874 C000 FFE1 01338         MOVFF   r0x04, FSR0L
0878 C000 FFE2 01339         MOVFF   r0x05, FSR0H
087C 0E40      01340         MOVLW   0x40
087E 6EE7      01341         MOVWF   INDF0
               01342 ;       .line   864; main.c     matrix_2[4][column-2]           = _COLOR_OFF;
0880 0EFE      01343         MOVLW   0xfe
0882 2600      01344         ADDWF   r0x00, F
0884 0E00      01345         MOVLW   LOW(_matrix_2 + 32)
0886 2400      01346         ADDWF   r0x00, W
0888 6E00      01347         MOVWF   r0x04
088A 6A00      01348         CLRF    r0x05
088C BE00      01349         BTFSC   r0x00, 7
088E 6800      01350         SETF    r0x05
gpasm-0.13.5 beta               _output/main__mios-gpasm-tmp.asm11-21-2009  19:30:07         PAGE 26


LOC  OBJECT CODE     LINE SOURCE TEXT
  VALUE
 
0890 0E00      01351         MOVLW   HIGH(_matrix_2 + 32)
0892 2200      01352         ADDWFC  r0x05, F
0894 C000 FFE1 01353         MOVFF   r0x04, FSR0L
0898 C000 FFE2 01354         MOVFF   r0x05, FSR0H
089C 0E00      01355         MOVLW   0x00
089E 6EE7      01356         MOVWF   INDF0
               01357 ;       .line   865; main.c     matrix_2[7][column-8+1] = _COLOR_WHITE;
08A0 6A00      01358         CLRF    r0x04
08A2 BE00      01359         BTFSC   r0x01, 7
08A4 6800      01360         SETF    r0x04
08A6 0E00      01361         MOVLW   LOW(_matrix_2 + 56)
08A8 2600      01362         ADDWF   r0x01, F
08AA 0E00      01363         MOVLW   HIGH(_matrix_2 + 56)
08AC 2200      01364         ADDWFC  r0x04, F
08AE C000 FFE1 01365         MOVFF   r0x01, FSR0L
08B2 C000 FFE2 01366         MOVFF   r0x04, FSR0H
08B6 0E70      01367         MOVLW   0x70
08B8 6EE7      01368         MOVWF   INDF0
               01369 ;       .line   866; main.c     matrix_2[7][column-8]           = _COLOR_CYAN;
08BA 6A00      01370         CLRF    r0x01
08BC BE00      01371         BTFSC   r0x02, 7
08BE 6800      01372         SETF    r0x01
08C0 0E00      01373         MOVLW   LOW(_matrix_2 + 56)
08C2 2600      01374         ADDWF   r0x02, F
08C4 0E00      01375         MOVLW   HIGH(_matrix_2 + 56)
08C6 2200      01376         ADDWFC  r0x01, F
08C8 C000 FFE1 01377         MOVFF   r0x02, FSR0L
08CC C000 FFE2 01378         MOVFF   r0x01, FSR0H
08D0 0E60      01379         MOVLW   0x60
08D2 6EE7      01380         MOVWF   INDF0
               01381 ;       .line   867; main.c     matrix_2[6][column-1]           = _COLOR_BLUE;
08D4 6A00      01382         CLRF    r0x01
08D6 BE00      01383         BTFSC   r0x03, 7
08D8 6800      01384         SETF    r0x01
08DA 0E00      01385         MOVLW   LOW(_matrix_2 + 48)
08DC 2600      01386         ADDWF   r0x03, F
08DE 0E00      01387         MOVLW   HIGH(_matrix_2 + 48)
08E0 2200      01388         ADDWFC  r0x01, F
08E2 C000 FFE1 01389         MOVFF   r0x03, FSR0L
08E6 C000 FFE2 01390         MOVFF   r0x01, FSR0H
08EA 0E40      01391         MOVLW   0x40
08EC 6EE7      01392         MOVWF   INDF0
               01393 ;       .line   868; main.c     matrix_2[6][column-2]           = _COLOR_OFF;
08EE 6A00      01394         CLRF    r0x01
08F0 BE00      01395         BTFSC   r0x00, 7
08F2 6800      01396         SETF    r0x01
08F4 0E00      01397         MOVLW   LOW(_matrix_2 + 48)
08F6 2600      01398         ADDWF   r0x00, F
08F8 0E00      01399         MOVLW   HIGH(_matrix_2 + 48)
08FA 2200      01400         ADDWFC  r0x01, F
08FC C000 FFE1 01401         MOVFF   r0x00, FSR0L
0900 C000 FFE2 01402         MOVFF   r0x01, FSR0H
0904 0E00      01403         MOVLW   0x00
0906 6EE7      01404         MOVWF   INDF0
gpasm-0.13.5 beta               _output/main__mios-gpasm-tmp.asm11-21-2009  19:30:07         PAGE 27


LOC  OBJECT CODE     LINE SOURCE TEXT
  VALUE
 
               01405 ;       .line   869; main.c     break;
0908 EF00 F000 01406         GOTO    _00574_DS_
090C           01407 _00561_DS_:
090C 0000      01408         BANKSEL _DoMichaelKnightPattern_column_1_1
               01409 ;       .line   871; main.c     matrix_2[5][column-8+1] = _COLOR_WHITE;
090E 5100      01410         MOVF    _DoMichaelKnightPattern_column_1_1, W, B
0910 6E00      01411         MOVWF   r0x00
0912 0EF9      01412         MOVLW   0xf9
0914 2400      01413         ADDWF   r0x00, W
0916 6E00      01414         MOVWF   r0x01
0918 0E00      01415         MOVLW   LOW(_matrix_2 + 40)
091A 2400      01416         ADDWF   r0x01, W
091C 6E00      01417         MOVWF   r0x02
091E 6A00      01418         CLRF    r0x03
0920 BE00      01419         BTFSC   r0x01, 7
0922 6800      01420         SETF    r0x03
0924 0E00      01421         MOVLW   HIGH(_matrix_2 + 40)
0926 2200      01422         ADDWFC  r0x03, F
0928 C000 FFE1 01423         MOVFF   r0x02, FSR0L
092C C000 FFE2 01424         MOVFF   r0x03, FSR0H
0930 0E70      01425         MOVLW   0x70
0932 6EE7      01426         MOVWF   INDF0
               01427 ;       .line   872; main.c     matrix_2[5][column-8]           = _COLOR_CYAN;
0934 0EF8      01428         MOVLW   0xf8
0936 2400      01429         ADDWF   r0x00, W
0938 6E00      01430         MOVWF   r0x02
093A 0E00      01431         MOVLW   LOW(_matrix_2 + 40)
093C 2400      01432         ADDWF   r0x02, W
093E 6E00      01433         MOVWF   r0x03
0940 6A00      01434         CLRF    r0x04
0942 BE00      01435         BTFSC   r0x02, 7
0944 6800      01436         SETF    r0x04
0946 0E00      01437         MOVLW   HIGH(_matrix_2 + 40)
0948 2200      01438         ADDWFC  r0x04, F
094A C000 FFE1 01439         MOVFF   r0x03, FSR0L
094E C000 FFE2 01440         MOVFF   r0x04, FSR0H
0952 0E60      01441         MOVLW   0x60
0954 6EE7      01442         MOVWF   INDF0
               01443 ;       .line   873; main.c     matrix_2[5][column-8-1] = _COLOR_BLUE;
0956 0EF7      01444         MOVLW   0xf7
0958 2400      01445         ADDWF   r0x00, W
095A 6E00      01446         MOVWF   r0x03
095C 0E00      01447         MOVLW   LOW(_matrix_2 + 40)
095E 2400      01448         ADDWF   r0x03, W
0960 6E00      01449         MOVWF   r0x04
0962 6A00      01450         CLRF    r0x05
0964 BE00      01451         BTFSC   r0x03, 7
0966 6800      01452         SETF    r0x05
0968 0E00      01453         MOVLW   HIGH(_matrix_2 + 40)
096A 2200      01454         ADDWFC  r0x05, F
096C C000 FFE1 01455         MOVFF   r0x04, FSR0L
0970 C000 FFE2 01456         MOVFF   r0x05, FSR0H
0974 0E40      01457         MOVLW   0x40
0976 6EE7      01458         MOVWF   INDF0
gpasm-0.13.5 beta               _output/main__mios-gpasm-tmp.asm11-21-2009  19:30:07         PAGE 28


LOC  OBJECT CODE     LINE SOURCE TEXT
  VALUE
 
               01459 ;       .line   874; main.c     matrix_2[4][column-2]           = _COLOR_OFF;
0978 0EFE      01460         MOVLW   0xfe
097A 2600      01461         ADDWF   r0x00, F
097C 0E00      01462         MOVLW   LOW(_matrix_2 + 32)
097E 2400      01463         ADDWF   r0x00, W
0980 6E00      01464         MOVWF   r0x04
0982 6A00      01465         CLRF    r0x05
0984 BE00      01466         BTFSC   r0x00, 7
0986 6800      01467         SETF    r0x05
0988 0E00      01468         MOVLW   HIGH(_matrix_2 + 32)
098A 2200      01469         ADDWFC  r0x05, F
098C C000 FFE1 01470         MOVFF   r0x04, FSR0L
0990 C000 FFE2 01471         MOVFF   r0x05, FSR0H
0994 0E00      01472         MOVLW   0x00
0996 6EE7      01473         MOVWF   INDF0
               01474 ;       .line   875; main.c     matrix_2[7][column-8+1] = _COLOR_WHITE;
0998 6A00      01475         CLRF    r0x04
099A BE00      01476         BTFSC   r0x01, 7
099C 6800      01477         SETF    r0x04
099E 0E00      01478         MOVLW   LOW(_matrix_2 + 56)
09A0 2600      01479         ADDWF   r0x01, F
09A2 0E00      01480         MOVLW   HIGH(_matrix_2 + 56)
09A4 2200      01481         ADDWFC  r0x04, F
09A6 C000 FFE1 01482         MOVFF   r0x01, FSR0L
09AA C000 FFE2 01483         MOVFF   r0x04, FSR0H
09AE 0E70      01484         MOVLW   0x70
09B0 6EE7      01485         MOVWF   INDF0
               01486 ;       .line   876; main.c     matrix_2[7][column-8]           = _COLOR_CYAN;
09B2 6A00      01487         CLRF    r0x01
09B4 BE00      01488         BTFSC   r0x02, 7
09B6 6800      01489         SETF    r0x01
09B8 0E00      01490         MOVLW   LOW(_matrix_2 + 56)
09BA 2600      01491         ADDWF   r0x02, F
09BC 0E00      01492         MOVLW   HIGH(_matrix_2 + 56)
09BE 2200      01493         ADDWFC  r0x01, F
09C0 C000 FFE1 01494         MOVFF   r0x02, FSR0L
09C4 C000 FFE2 01495         MOVFF   r0x01, FSR0H
09C8 0E60      01496         MOVLW   0x60
09CA 6EE7      01497         MOVWF   INDF0
               01498 ;       .line   877; main.c     matrix_2[7][column-8-1] = _COLOR_BLUE;
09CC 6A00      01499         CLRF    r0x01
09CE BE00      01500         BTFSC   r0x03, 7
09D0 6800      01501         SETF    r0x01
09D2 0E00      01502         MOVLW   LOW(_matrix_2 + 56)
09D4 2600      01503         ADDWF   r0x03, F
09D6 0E00      01504         MOVLW   HIGH(_matrix_2 + 56)
09D8 2200      01505         ADDWFC  r0x01, F
09DA C000 FFE1 01506         MOVFF   r0x03, FSR0L
09DE C000 FFE2 01507         MOVFF   r0x01, FSR0H
09E2 0E40      01508         MOVLW   0x40
09E4 6EE7      01509         MOVWF   INDF0
               01510 ;       .line   878; main.c     matrix_2[6][column-2]           = _COLOR_OFF;
09E6 6A00      01511         CLRF    r0x01
09E8 BE00      01512         BTFSC   r0x00, 7
gpasm-0.13.5 beta               _output/main__mios-gpasm-tmp.asm11-21-2009  19:30:07         PAGE 29


LOC  OBJECT CODE     LINE SOURCE TEXT
  VALUE
 
09EA 6800      01513         SETF    r0x01
09EC 0E00      01514         MOVLW   LOW(_matrix_2 + 48)
09EE 2600      01515         ADDWF   r0x00, F
09F0 0E00      01516         MOVLW   HIGH(_matrix_2 + 48)
09F2 2200      01517         ADDWFC  r0x01, F
09F4 C000 FFE1 01518         MOVFF   r0x00, FSR0L
09F8 C000 FFE2 01519         MOVFF   r0x01, FSR0H
09FC 0E00      01520         MOVLW   0x00
09FE 6EE7      01521         MOVWF   INDF0
               01522 ;       .line   879; main.c     break;
0A00 EF00 F000 01523         GOTO    _00574_DS_
0A04           01524 _00562_DS_:
0A04 0000      01525         BANKSEL _DoMichaelKnightPattern_column_1_1
               01526 ;       .line   881; main.c     matrix_2[5][column-8+1]         = _COLOR_WHITE;
0A06 5100      01527         MOVF    _DoMichaelKnightPattern_column_1_1, W, B
0A08 6E00      01528         MOVWF   r0x00
0A0A 0EF9      01529         MOVLW   0xf9
0A0C 2400      01530         ADDWF   r0x00, W
0A0E 6E00      01531         MOVWF   r0x01
0A10 0E00      01532         MOVLW   LOW(_matrix_2 + 40)
0A12 2400      01533         ADDWF   r0x01, W
0A14 6E00      01534         MOVWF   r0x02
0A16 6A00      01535         CLRF    r0x03
0A18 BE00      01536         BTFSC   r0x01, 7
0A1A 6800      01537         SETF    r0x03
0A1C 0E00      01538         MOVLW   HIGH(_matrix_2 + 40)
0A1E 2200      01539         ADDWFC  r0x03, F
0A20 C000 FFE1 01540         MOVFF   r0x02, FSR0L
0A24 C000 FFE2 01541         MOVFF   r0x03, FSR0H
0A28 0E70      01542         MOVLW   0x70
0A2A 6EE7      01543         MOVWF   INDF0
               01544 ;       .line   882; main.c     matrix_2[5][column-8]           = _COLOR_CYAN;
0A2C 0EF8      01545         MOVLW   0xf8
0A2E 2400      01546         ADDWF   r0x00, W
0A30 6E00      01547         MOVWF   r0x02
0A32 0E00      01548         MOVLW   LOW(_matrix_2 + 40)
0A34 2400      01549         ADDWF   r0x02, W
0A36 6E00      01550         MOVWF   r0x03
0A38 6A00      01551         CLRF    r0x04
0A3A BE00      01552         BTFSC   r0x02, 7
0A3C 6800      01553         SETF    r0x04
0A3E 0E00      01554         MOVLW   HIGH(_matrix_2 + 40)
0A40 2200      01555         ADDWFC  r0x04, F
0A42 C000 FFE1 01556         MOVFF   r0x03, FSR0L
0A46 C000 FFE2 01557         MOVFF   r0x04, FSR0H
0A4A 0E60      01558         MOVLW   0x60
0A4C 6EE7      01559         MOVWF   INDF0
               01560 ;       .line   883; main.c     matrix_2[5][column-8-1]         = _COLOR_BLUE;
0A4E 0EF7      01561         MOVLW   0xf7
0A50 2400      01562         ADDWF   r0x00, W
0A52 6E00      01563         MOVWF   r0x03
0A54 0E00      01564         MOVLW   LOW(_matrix_2 + 40)
0A56 2400      01565         ADDWF   r0x03, W
0A58 6E00      01566         MOVWF   r0x04
gpasm-0.13.5 beta               _output/main__mios-gpasm-tmp.asm11-21-2009  19:30:07         PAGE 30


LOC  OBJECT CODE     LINE SOURCE TEXT
  VALUE
 
0A5A 6A00      01567         CLRF    r0x05
0A5C BE00      01568         BTFSC   r0x03, 7
0A5E 6800      01569         SETF    r0x05
0A60 0E00      01570         MOVLW   HIGH(_matrix_2 + 40)
0A62 2200      01571         ADDWFC  r0x05, F
0A64 C000 FFE1 01572         MOVFF   r0x04, FSR0L
0A68 C000 FFE2 01573         MOVFF   r0x05, FSR0H
0A6C 0E40      01574         MOVLW   0x40
0A6E 6EE7      01575         MOVWF   INDF0
               01576 ;       .line   884; main.c     matrix_2[5][column-8-2]         = _COLOR_OFF;
0A70 0EF6      01577         MOVLW   0xf6
0A72 2600      01578         ADDWF   r0x00, F
0A74 0E00      01579         MOVLW   LOW(_matrix_2 + 40)
0A76 2400      01580         ADDWF   r0x00, W
0A78 6E00      01581         MOVWF   r0x04
0A7A 6A00      01582         CLRF    r0x05
0A7C BE00      01583         BTFSC   r0x00, 7
0A7E 6800      01584         SETF    r0x05
0A80 0E00      01585         MOVLW   HIGH(_matrix_2 + 40)
0A82 2200      01586         ADDWFC  r0x05, F
0A84 C000 FFE1 01587         MOVFF   r0x04, FSR0L
0A88 C000 FFE2 01588         MOVFF   r0x05, FSR0H
0A8C 0E00      01589         MOVLW   0x00
0A8E 6EE7      01590         MOVWF   INDF0
               01591 ;       .line   885; main.c     matrix_2[7][column-8+1]         = _COLOR_WHITE;
0A90 6A00      01592         CLRF    r0x04
0A92 BE00      01593         BTFSC   r0x01, 7
0A94 6800      01594         SETF    r0x04
0A96 0E00      01595         MOVLW   LOW(_matrix_2 + 56)
0A98 2600      01596         ADDWF   r0x01, F
0A9A 0E00      01597         MOVLW   HIGH(_matrix_2 + 56)
0A9C 2200      01598         ADDWFC  r0x04, F
0A9E C000 FFE1 01599         MOVFF   r0x01, FSR0L
0AA2 C000 FFE2 01600         MOVFF   r0x04, FSR0H
0AA6 0E70      01601         MOVLW   0x70
0AA8 6EE7      01602         MOVWF   INDF0
               01603 ;       .line   886; main.c     matrix_2[7][column-8]           = _COLOR_CYAN;
0AAA 6A00      01604         CLRF    r0x01
0AAC BE00      01605         BTFSC   r0x02, 7
0AAE 6800      01606         SETF    r0x01
0AB0 0E00      01607         MOVLW   LOW(_matrix_2 + 56)
0AB2 2600      01608         ADDWF   r0x02, F
0AB4 0E00      01609         MOVLW   HIGH(_matrix_2 + 56)
0AB6 2200      01610         ADDWFC  r0x01, F
0AB8 C000 FFE1 01611         MOVFF   r0x02, FSR0L
0ABC C000 FFE2 01612         MOVFF   r0x01, FSR0H
0AC0 0E60      01613         MOVLW   0x60
0AC2 6EE7      01614         MOVWF   INDF0
               01615 ;       .line   887; main.c     matrix_2[7][column-8-1]         = _COLOR_BLUE;
0AC4 6A00      01616         CLRF    r0x01
0AC6 BE00      01617         BTFSC   r0x03, 7
0AC8 6800      01618         SETF    r0x01
0ACA 0E00      01619         MOVLW   LOW(_matrix_2 + 56)
0ACC 2600      01620         ADDWF   r0x03, F
gpasm-0.13.5 beta               _output/main__mios-gpasm-tmp.asm11-21-2009  19:30:07         PAGE 31


LOC  OBJECT CODE     LINE SOURCE TEXT
  VALUE
 
0ACE 0E00      01621         MOVLW   HIGH(_matrix_2 + 56)
0AD0 2200      01622         ADDWFC  r0x01, F
0AD2 C000 FFE1 01623         MOVFF   r0x03, FSR0L
0AD6 C000 FFE2 01624         MOVFF   r0x01, FSR0H
0ADA 0E40      01625         MOVLW   0x40
0ADC 6EE7      01626         MOVWF   INDF0
               01627 ;       .line   888; main.c     matrix_2[7][column-8-2]         = _COLOR_OFF;
0ADE 6A00      01628         CLRF    r0x01
0AE0 BE00      01629         BTFSC   r0x00, 7
0AE2 6800      01630         SETF    r0x01
0AE4 0E00      01631         MOVLW   LOW(_matrix_2 + 56)
0AE6 2600      01632         ADDWF   r0x00, F
0AE8 0E00      01633         MOVLW   HIGH(_matrix_2 + 56)
0AEA 2200      01634         ADDWFC  r0x01, F
0AEC C000 FFE1 01635         MOVFF   r0x00, FSR0L
0AF0 C000 FFE2 01636         MOVFF   r0x01, FSR0H
0AF4 0E00      01637         MOVLW   0x00
0AF6 6EE7      01638         MOVWF   INDF0
               01639 ;       .line   889; main.c     break;
0AF8 EF00 F000 01640         GOTO    _00574_DS_
0AFC           01641 _00563_DS_:
0AFC 0000      01642         BANKSEL _DoMichaelKnightPattern_column_1_1
               01643 ;       .line   891; main.c     matrix_2[5][column-8+1]         = _COLOR_WHITE;
0AFE 5100      01644         MOVF    _DoMichaelKnightPattern_column_1_1, W, B
0B00 6E00      01645         MOVWF   r0x00
0B02 0EF9      01646         MOVLW   0xf9
0B04 2400      01647         ADDWF   r0x00, W
0B06 6E00      01648         MOVWF   r0x01
0B08 0E00      01649         MOVLW   LOW(_matrix_2 + 40)
0B0A 2400      01650         ADDWF   r0x01, W
0B0C 6E00      01651         MOVWF   r0x02
0B0E 6A00      01652         CLRF    r0x03
0B10 BE00      01653         BTFSC   r0x01, 7
0B12 6800      01654         SETF    r0x03
0B14 0E00      01655         MOVLW   HIGH(_matrix_2 + 40)
0B16 2200      01656         ADDWFC  r0x03, F
0B18 C000 FFE1 01657         MOVFF   r0x02, FSR0L
0B1C C000 FFE2 01658         MOVFF   r0x03, FSR0H
0B20 0E70      01659         MOVLW   0x70
0B22 6EE7      01660         MOVWF   INDF0
               01661 ;       .line   892; main.c     matrix_2[5][column-8]           = _COLOR_CYAN;
0B24 0EF8      01662         MOVLW   0xf8
0B26 2400      01663         ADDWF   r0x00, W
0B28 6E00      01664         MOVWF   r0x02
0B2A 0E00      01665         MOVLW   LOW(_matrix_2 + 40)
0B2C 2400      01666         ADDWF   r0x02, W
0B2E 6E00      01667         MOVWF   r0x03
0B30 6A00      01668         CLRF    r0x04
0B32 BE00      01669         BTFSC   r0x02, 7
0B34 6800      01670         SETF    r0x04
0B36 0E00      01671         MOVLW   HIGH(_matrix_2 + 40)
0B38 2200      01672         ADDWFC  r0x04, F
0B3A C000 FFE1 01673         MOVFF   r0x03, FSR0L
0B3E C000 FFE2 01674         MOVFF   r0x04, FSR0H
gpasm-0.13.5 beta               _output/main__mios-gpasm-tmp.asm11-21-2009  19:30:07         PAGE 32


LOC  OBJECT CODE     LINE SOURCE TEXT
  VALUE
 
0B42 0E60      01675         MOVLW   0x60
0B44 6EE7      01676         MOVWF   INDF0
               01677 ;       .line   893; main.c     matrix_2[5][column-8-1]         = _COLOR_BLUE;
0B46 0EF7      01678         MOVLW   0xf7
0B48 2400      01679         ADDWF   r0x00, W
0B4A 6E00      01680         MOVWF   r0x03
0B4C 0E00      01681         MOVLW   LOW(_matrix_2 + 40)
0B4E 2400      01682         ADDWF   r0x03, W
0B50 6E00      01683         MOVWF   r0x04
0B52 6A00      01684         CLRF    r0x05
0B54 BE00      01685         BTFSC   r0x03, 7
0B56 6800      01686         SETF    r0x05
0B58 0E00      01687         MOVLW   HIGH(_matrix_2 + 40)
0B5A 2200      01688         ADDWFC  r0x05, F
0B5C C000 FFE1 01689         MOVFF   r0x04, FSR0L
0B60 C000 FFE2 01690         MOVFF   r0x05, FSR0H
0B64 0E40      01691         MOVLW   0x40
0B66 6EE7      01692         MOVWF   INDF0
               01693 ;       .line   894; main.c     matrix_2[5][column-8-2]         = _COLOR_OFF;
0B68 0EF6      01694         MOVLW   0xf6
0B6A 2600      01695         ADDWF   r0x00, F
0B6C 0E00      01696         MOVLW   LOW(_matrix_2 + 40)
0B6E 2400      01697         ADDWF   r0x00, W
0B70 6E00      01698         MOVWF   r0x04
0B72 6A00      01699         CLRF    r0x05
0B74 BE00      01700         BTFSC   r0x00, 7
0B76 6800      01701         SETF    r0x05
0B78 0E00      01702         MOVLW   HIGH(_matrix_2 + 40)
0B7A 2200      01703         ADDWFC  r0x05, F
0B7C C000 FFE1 01704         MOVFF   r0x04, FSR0L
0B80 C000 FFE2 01705         MOVFF   r0x05, FSR0H
0B84 0E00      01706         MOVLW   0x00
0B86 6EE7      01707         MOVWF   INDF0
               01708 ;       .line   895; main.c     matrix_2[7][column-8+1]         = _COLOR_WHITE;
0B88 6A00      01709         CLRF    r0x04
0B8A BE00      01710         BTFSC   r0x01, 7
0B8C 6800      01711         SETF    r0x04
0B8E 0E00      01712         MOVLW   LOW(_matrix_2 + 56)
0B90 2600      01713         ADDWF   r0x01, F
0B92 0E00      01714         MOVLW   HIGH(_matrix_2 + 56)
0B94 2200      01715         ADDWFC  r0x04, F
0B96 C000 FFE1 01716         MOVFF   r0x01, FSR0L
0B9A C000 FFE2 01717         MOVFF   r0x04, FSR0H
0B9E 0E70      01718         MOVLW   0x70
0BA0 6EE7      01719         MOVWF   INDF0
               01720 ;       .line   896; main.c     matrix_2[7][column-8]           = _COLOR_CYAN;
0BA2 6A00      01721         CLRF    r0x01
0BA4 BE00      01722         BTFSC   r0x02, 7
0BA6 6800      01723         SETF    r0x01
0BA8 0E00      01724         MOVLW   LOW(_matrix_2 + 56)
0BAA 2600      01725         ADDWF   r0x02, F
0BAC 0E00      01726         MOVLW   HIGH(_matrix_2 + 56)
0BAE 2200      01727         ADDWFC  r0x01, F
0BB0 C000 FFE1 01728         MOVFF   r0x02, FSR0L
gpasm-0.13.5 beta               _output/main__mios-gpasm-tmp.asm11-21-2009  19:30:07         PAGE 33


LOC  OBJECT CODE     LINE SOURCE TEXT
  VALUE
 
0BB4 C000 FFE2 01729         MOVFF   r0x01, FSR0H
0BB8 0E60      01730         MOVLW   0x60
0BBA 6EE7      01731         MOVWF   INDF0
               01732 ;       .line   897; main.c     matrix_2[7][column-8-1]         = _COLOR_BLUE;
0BBC 6A00      01733         CLRF    r0x01
0BBE BE00      01734         BTFSC   r0x03, 7
0BC0 6800      01735         SETF    r0x01
0BC2 0E00      01736         MOVLW   LOW(_matrix_2 + 56)
0BC4 2600      01737         ADDWF   r0x03, F
0BC6 0E00      01738         MOVLW   HIGH(_matrix_2 + 56)
0BC8 2200      01739         ADDWFC  r0x01, F
0BCA C000 FFE1 01740         MOVFF   r0x03, FSR0L
0BCE C000 FFE2 01741         MOVFF   r0x01, FSR0H
0BD2 0E40      01742         MOVLW   0x40
0BD4 6EE7      01743         MOVWF   INDF0
               01744 ;       .line   898; main.c     matrix_2[7][column-8-2]         = _COLOR_OFF;
0BD6 6A00      01745         CLRF    r0x01
0BD8 BE00      01746         BTFSC   r0x00, 7
0BDA 6800      01747         SETF    r0x01
0BDC 0E00      01748         MOVLW   LOW(_matrix_2 + 56)
0BDE 2600      01749         ADDWF   r0x00, F
0BE0 0E00      01750         MOVLW   HIGH(_matrix_2 + 56)
0BE2 2200      01751         ADDWFC  r0x01, F
0BE4 C000 FFE1 01752         MOVFF   r0x00, FSR0L
0BE8 C000 FFE2 01753         MOVFF   r0x01, FSR0H
0BEC 0E00      01754         MOVLW   0x00
0BEE 6EE7      01755         MOVWF   INDF0
               01756 ;       .line   899; main.c     break;
0BF0 EF00 F000 01757         GOTO    _00574_DS_
0BF4           01758 _00564_DS_:
0BF4 0000      01759         BANKSEL _DoMichaelKnightPattern_column_1_1
               01760 ;       .line   901; main.c     matrix_2[5][column-8+1]         = _COLOR_WHITE;
0BF6 5100      01761         MOVF    _DoMichaelKnightPattern_column_1_1, W, B
0BF8 6E00      01762         MOVWF   r0x00
0BFA 0EF9      01763         MOVLW   0xf9
0BFC 2400      01764         ADDWF   r0x00, W
0BFE 6E00      01765         MOVWF   r0x01
0C00 0E00      01766         MOVLW   LOW(_matrix_2 + 40)
0C02 2400      01767         ADDWF   r0x01, W
0C04 6E00      01768         MOVWF   r0x02
0C06 6A00      01769         CLRF    r0x03
0C08 BE00      01770         BTFSC   r0x01, 7
0C0A 6800      01771         SETF    r0x03
0C0C 0E00      01772         MOVLW   HIGH(_matrix_2 + 40)
0C0E 2200      01773         ADDWFC  r0x03, F
0C10 C000 FFE1 01774         MOVFF   r0x02, FSR0L
0C14 C000 FFE2 01775         MOVFF   r0x03, FSR0H
0C18 0E70      01776         MOVLW   0x70
0C1A 6EE7      01777         MOVWF   INDF0
               01778 ;       .line   902; main.c     matrix_2[5][column-8]           = _COLOR_CYAN;
0C1C 0EF8      01779         MOVLW   0xf8
0C1E 2400      01780         ADDWF   r0x00, W
0C20 6E00      01781         MOVWF   r0x02
0C22 0E00      01782         MOVLW   LOW(_matrix_2 + 40)
gpasm-0.13.5 beta               _output/main__mios-gpasm-tmp.asm11-21-2009  19:30:07         PAGE 34


LOC  OBJECT CODE     LINE SOURCE TEXT
  VALUE
 
0C24 2400      01783         ADDWF   r0x02, W
0C26 6E00      01784         MOVWF   r0x03
0C28 6A00      01785         CLRF    r0x04
0C2A BE00      01786         BTFSC   r0x02, 7
0C2C 6800      01787         SETF    r0x04
0C2E 0E00      01788         MOVLW   HIGH(_matrix_2 + 40)
0C30 2200      01789         ADDWFC  r0x04, F
0C32 C000 FFE1 01790         MOVFF   r0x03, FSR0L
0C36 C000 FFE2 01791         MOVFF   r0x04, FSR0H
0C3A 0E60      01792         MOVLW   0x60
0C3C 6EE7      01793         MOVWF   INDF0
               01794 ;       .line   903; main.c     matrix_2[5][column-8-1]         = _COLOR_BLUE;
0C3E 0EF7      01795         MOVLW   0xf7
0C40 2400      01796         ADDWF   r0x00, W
0C42 6E00      01797         MOVWF   r0x03
0C44 0E00      01798         MOVLW   LOW(_matrix_2 + 40)
0C46 2400      01799         ADDWF   r0x03, W
0C48 6E00      01800         MOVWF   r0x04
0C4A 6A00      01801         CLRF    r0x05
0C4C BE00      01802         BTFSC   r0x03, 7
0C4E 6800      01803         SETF    r0x05
0C50 0E00      01804         MOVLW   HIGH(_matrix_2 + 40)
0C52 2200      01805         ADDWFC  r0x05, F
0C54 C000 FFE1 01806         MOVFF   r0x04, FSR0L
0C58 C000 FFE2 01807         MOVFF   r0x05, FSR0H
0C5C 0E40      01808         MOVLW   0x40
0C5E 6EE7      01809         MOVWF   INDF0
               01810 ;       .line   904; main.c     matrix_2[5][column-8-2]         = _COLOR_OFF;
0C60 0EF6      01811         MOVLW   0xf6
0C62 2600      01812         ADDWF   r0x00, F
0C64 0E00      01813         MOVLW   LOW(_matrix_2 + 40)
0C66 2400      01814         ADDWF   r0x00, W
0C68 6E00      01815         MOVWF   r0x04
0C6A 6A00      01816         CLRF    r0x05
0C6C BE00      01817         BTFSC   r0x00, 7
0C6E 6800      01818         SETF    r0x05
0C70 0E00      01819         MOVLW   HIGH(_matrix_2 + 40)
0C72 2200      01820         ADDWFC  r0x05, F
0C74 C000 FFE1 01821         MOVFF   r0x04, FSR0L
0C78 C000 FFE2 01822         MOVFF   r0x05, FSR0H
0C7C 0E00      01823         MOVLW   0x00
0C7E 6EE7      01824         MOVWF   INDF0
               01825 ;       .line   905; main.c     matrix_2[7][column-8+1]         = _COLOR_WHITE;
0C80 6A00      01826         CLRF    r0x04
0C82 BE00      01827         BTFSC   r0x01, 7
0C84 6800      01828         SETF    r0x04
0C86 0E00      01829         MOVLW   LOW(_matrix_2 + 56)
0C88 2600      01830         ADDWF   r0x01, F
0C8A 0E00      01831         MOVLW   HIGH(_matrix_2 + 56)
0C8C 2200      01832         ADDWFC  r0x04, F
0C8E C000 FFE1 01833         MOVFF   r0x01, FSR0L
0C92 C000 FFE2 01834         MOVFF   r0x04, FSR0H
0C96 0E70      01835         MOVLW   0x70
0C98 6EE7      01836         MOVWF   INDF0
gpasm-0.13.5 beta               _output/main__mios-gpasm-tmp.asm11-21-2009  19:30:07         PAGE 35


LOC  OBJECT CODE     LINE SOURCE TEXT
  VALUE
 
               01837 ;       .line   906; main.c     matrix_2[7][column-8]           = _COLOR_CYAN;
0C9A 6A00      01838         CLRF    r0x01
0C9C BE00      01839         BTFSC   r0x02, 7
0C9E 6800      01840         SETF    r0x01
0CA0 0E00      01841         MOVLW   LOW(_matrix_2 + 56)
0CA2 2600      01842         ADDWF   r0x02, F
0CA4 0E00      01843         MOVLW   HIGH(_matrix_2 + 56)
0CA6 2200      01844         ADDWFC  r0x01, F
0CA8 C000 FFE1 01845         MOVFF   r0x02, FSR0L
0CAC C000 FFE2 01846         MOVFF   r0x01, FSR0H
0CB0 0E60      01847         MOVLW   0x60
0CB2 6EE7      01848         MOVWF   INDF0
               01849 ;       .line   907; main.c     matrix_2[7][column-8-1]         = _COLOR_BLUE;
0CB4 6A00      01850         CLRF    r0x01
0CB6 BE00      01851         BTFSC   r0x03, 7
0CB8 6800      01852         SETF    r0x01
0CBA 0E00      01853         MOVLW   LOW(_matrix_2 + 56)
0CBC 2600      01854         ADDWF   r0x03, F
0CBE 0E00      01855         MOVLW   HIGH(_matrix_2 + 56)
0CC0 2200      01856         ADDWFC  r0x01, F
0CC2 C000 FFE1 01857         MOVFF   r0x03, FSR0L
0CC6 C000 FFE2 01858         MOVFF   r0x01, FSR0H
0CCA 0E40      01859         MOVLW   0x40
0CCC 6EE7      01860         MOVWF   INDF0
               01861 ;       .line   908; main.c     matrix_2[7][column-8-2]         = _COLOR_OFF;
0CCE 6A00      01862         CLRF    r0x01
0CD0 BE00      01863         BTFSC   r0x00, 7
0CD2 6800      01864         SETF    r0x01
0CD4 0E00      01865         MOVLW   LOW(_matrix_2 + 56)
0CD6 2600      01866         ADDWF   r0x00, F
0CD8 0E00      01867         MOVLW   HIGH(_matrix_2 + 56)
0CDA 2200      01868         ADDWFC  r0x01, F
0CDC C000 FFE1 01869         MOVFF   r0x00, FSR0L
0CE0 C000 FFE2 01870         MOVFF   r0x01, FSR0H
0CE4 0E00      01871         MOVLW   0x00
0CE6 6EE7      01872         MOVWF   INDF0
               01873 ;       .line   909; main.c     break;
0CE8 D000      01874         BRA     _00574_DS_
0CEA           01875 _00565_DS_:
0CEA 0000      01876         BANKSEL _DoMichaelKnightPattern_column_1_1
               01877 ;       .line   911; main.c     matrix_2[5][column-8+1]         = _COLOR_WHITE;
0CEC 5100      01878         MOVF    _DoMichaelKnightPattern_column_1_1, W, B
0CEE 6E00      01879         MOVWF   r0x00
0CF0 0EF9      01880         MOVLW   0xf9
0CF2 2400      01881         ADDWF   r0x00, W
0CF4 6E00      01882         MOVWF   r0x01
0CF6 0E00      01883         MOVLW   LOW(_matrix_2 + 40)
0CF8 2400      01884         ADDWF   r0x01, W
0CFA 6E00      01885         MOVWF   r0x02
0CFC 6A00      01886         CLRF    r0x03
0CFE BE00      01887         BTFSC   r0x01, 7
0D00 6800      01888         SETF    r0x03
0D02 0E00      01889         MOVLW   HIGH(_matrix_2 + 40)
0D04 2200      01890         ADDWFC  r0x03, F
gpasm-0.13.5 beta               _output/main__mios-gpasm-tmp.asm11-21-2009  19:30:07         PAGE 36


LOC  OBJECT CODE     LINE SOURCE TEXT
  VALUE
 
0D06 C000 FFE1 01891         MOVFF   r0x02, FSR0L
0D0A C000 FFE2 01892         MOVFF   r0x03, FSR0H
0D0E 0E70      01893         MOVLW   0x70
0D10 6EE7      01894         MOVWF   INDF0
               01895 ;       .line   912; main.c     matrix_2[5][column-8]           = _COLOR_CYAN;
0D12 0EF8      01896         MOVLW   0xf8
0D14 2400      01897         ADDWF   r0x00, W
0D16 6E00      01898         MOVWF   r0x02
0D18 0E00      01899         MOVLW   LOW(_matrix_2 + 40)
0D1A 2400      01900         ADDWF   r0x02, W
0D1C 6E00      01901         MOVWF   r0x03
0D1E 6A00      01902         CLRF    r0x04
0D20 BE00      01903         BTFSC   r0x02, 7
0D22 6800      01904         SETF    r0x04
0D24 0E00      01905         MOVLW   HIGH(_matrix_2 + 40)
0D26 2200      01906         ADDWFC  r0x04, F
0D28 C000 FFE1 01907         MOVFF   r0x03, FSR0L
0D2C C000 FFE2 01908         MOVFF   r0x04, FSR0H
0D30 0E60      01909         MOVLW   0x60
0D32 6EE7      01910         MOVWF   INDF0
               01911 ;       .line   913; main.c     matrix_2[5][column-8-1]         = _COLOR_BLUE;
0D34 0EF7      01912         MOVLW   0xf7
0D36 2400      01913         ADDWF   r0x00, W
0D38 6E00      01914         MOVWF   r0x03
0D3A 0E00      01915         MOVLW   LOW(_matrix_2 + 40)
0D3C 2400      01916         ADDWF   r0x03, W
0D3E 6E00      01917         MOVWF   r0x04
0D40 6A00      01918         CLRF    r0x05
0D42 BE00      01919         BTFSC   r0x03, 7
0D44 6800      01920         SETF    r0x05
0D46 0E00      01921         MOVLW   HIGH(_matrix_2 + 40)
0D48 2200      01922         ADDWFC  r0x05, F
0D4A C000 FFE1 01923         MOVFF   r0x04, FSR0L
0D4E C000 FFE2 01924         MOVFF   r0x05, FSR0H
0D52 0E40      01925         MOVLW   0x40
0D54 6EE7      01926         MOVWF   INDF0
               01927 ;       .line   914; main.c     matrix_2[5][column-8-2]         = _COLOR_OFF;
0D56 0EF6      01928         MOVLW   0xf6
0D58 2600      01929         ADDWF   r0x00, F
0D5A 0E00      01930         MOVLW   LOW(_matrix_2 + 40)
0D5C 2400      01931         ADDWF   r0x00, W
0D5E 6E00      01932         MOVWF   r0x04
0D60 6A00      01933         CLRF    r0x05
0D62 BE00      01934         BTFSC   r0x00, 7
0D64 6800      01935         SETF    r0x05
0D66 0E00      01936         MOVLW   HIGH(_matrix_2 + 40)
0D68 2200      01937         ADDWFC  r0x05, F
0D6A C000 FFE1 01938         MOVFF   r0x04, FSR0L
0D6E C000 FFE2 01939         MOVFF   r0x05, FSR0H
0D72 0E00      01940         MOVLW   0x00
0D74 6EE7      01941         MOVWF   INDF0
               01942 ;       .line   915; main.c     matrix_2[7][column-8+1]         = _COLOR_WHITE;
0D76 6A00      01943         CLRF    r0x04
0D78 BE00      01944         BTFSC   r0x01, 7
gpasm-0.13.5 beta               _output/main__mios-gpasm-tmp.asm11-21-2009  19:30:07         PAGE 37


LOC  OBJECT CODE     LINE SOURCE TEXT
  VALUE
 
0D7A 6800      01945         SETF    r0x04
0D7C 0E00      01946         MOVLW   LOW(_matrix_2 + 56)
0D7E 2600      01947         ADDWF   r0x01, F
0D80 0E00      01948         MOVLW   HIGH(_matrix_2 + 56)
0D82 2200      01949         ADDWFC  r0x04, F
0D84 C000 FFE1 01950         MOVFF   r0x01, FSR0L
0D88 C000 FFE2 01951         MOVFF   r0x04, FSR0H
0D8C 0E70      01952         MOVLW   0x70
0D8E 6EE7      01953         MOVWF   INDF0
               01954 ;       .line   916; main.c     matrix_2[7][column-8]           = _COLOR_CYAN;
0D90 6A00      01955         CLRF    r0x01
0D92 BE00      01956         BTFSC   r0x02, 7
0D94 6800      01957         SETF    r0x01
0D96 0E00      01958         MOVLW   LOW(_matrix_2 + 56)
0D98 2600      01959         ADDWF   r0x02, F
0D9A 0E00      01960         MOVLW   HIGH(_matrix_2 + 56)
0D9C 2200      01961         ADDWFC  r0x01, F
0D9E C000 FFE1 01962         MOVFF   r0x02, FSR0L
0DA2 C000 FFE2 01963         MOVFF   r0x01, FSR0H
0DA6 0E60      01964         MOVLW   0x60
0DA8 6EE7      01965         MOVWF   INDF0
               01966 ;       .line   917; main.c     matrix_2[7][column-8-1]         = _COLOR_BLUE;
0DAA 6A00      01967         CLRF    r0x01
0DAC BE00      01968         BTFSC   r0x03, 7
0DAE 6800      01969         SETF    r0x01
0DB0 0E00      01970         MOVLW   LOW(_matrix_2 + 56)
0DB2 2600      01971         ADDWF   r0x03, F
0DB4 0E00      01972         MOVLW   HIGH(_matrix_2 + 56)
0DB6 2200      01973         ADDWFC  r0x01, F
0DB8 C000 FFE1 01974         MOVFF   r0x03, FSR0L
0DBC C000 FFE2 01975         MOVFF   r0x01, FSR0H
0DC0 0E40      01976         MOVLW   0x40
0DC2 6EE7      01977         MOVWF   INDF0
               01978 ;       .line   918; main.c     matrix_2[7][column-8-2]         = _COLOR_OFF;
0DC4 6A00      01979         CLRF    r0x01
0DC6 BE00      01980         BTFSC   r0x00, 7
0DC8 6800      01981         SETF    r0x01
0DCA 0E00      01982         MOVLW   LOW(_matrix_2 + 56)
0DCC 2600      01983         ADDWF   r0x00, F
0DCE 0E00      01984         MOVLW   HIGH(_matrix_2 + 56)
0DD0 2200      01985         ADDWFC  r0x01, F
0DD2 C000 FFE1 01986         MOVFF   r0x00, FSR0L
0DD6 C000 FFE2 01987         MOVFF   r0x01, FSR0H
0DDA 0E00      01988         MOVLW   0x00
0DDC 6EE7      01989         MOVWF   INDF0
               01990 ;       .line   919; main.c     break;
0DDE D000      01991         BRA     _00574_DS_
0DE0           01992 _00566_DS_:
0DE0 0000      01993         BANKSEL _DoMichaelKnightPattern_column_1_1
               01994 ;       .line   921; main.c     matrix_2[5][column-8+1]         = _COLOR_WHITE;
0DE2 5100      01995         MOVF    _DoMichaelKnightPattern_column_1_1, W, B
0DE4 6E00      01996         MOVWF   r0x00
0DE6 0EF9      01997         MOVLW   0xf9
0DE8 2400      01998         ADDWF   r0x00, W
gpasm-0.13.5 beta               _output/main__mios-gpasm-tmp.asm11-21-2009  19:30:07         PAGE 38


LOC  OBJECT CODE     LINE SOURCE TEXT
  VALUE
 
0DEA 6E00      01999         MOVWF   r0x01
0DEC 0E00      02000         MOVLW   LOW(_matrix_2 + 40)
0DEE 2400      02001         ADDWF   r0x01, W
0DF0 6E00      02002         MOVWF   r0x02
0DF2 6A00      02003         CLRF    r0x03
0DF4 BE00      02004         BTFSC   r0x01, 7
0DF6 6800      02005         SETF    r0x03
0DF8 0E00      02006         MOVLW   HIGH(_matrix_2 + 40)
0DFA 2200      02007         ADDWFC  r0x03, F
0DFC C000 FFE1 02008         MOVFF   r0x02, FSR0L
0E00 C000 FFE2 02009         MOVFF   r0x03, FSR0H
0E04 0E70      02010         MOVLW   0x70
0E06 6EE7      02011         MOVWF   INDF0
               02012 ;       .line   922; main.c     matrix_2[5][column-8]           = _COLOR_CYAN;
0E08 0EF8      02013         MOVLW   0xf8
0E0A 2400      02014         ADDWF   r0x00, W
0E0C 6E00      02015         MOVWF   r0x02
0E0E 0E00      02016         MOVLW   LOW(_matrix_2 + 40)
0E10 2400      02017         ADDWF   r0x02, W
0E12 6E00      02018         MOVWF   r0x03
0E14 6A00      02019         CLRF    r0x04
0E16 BE00      02020         BTFSC   r0x02, 7
0E18 6800      02021         SETF    r0x04
0E1A 0E00      02022         MOVLW   HIGH(_matrix_2 + 40)
0E1C 2200      02023         ADDWFC  r0x04, F
0E1E C000 FFE1 02024         MOVFF   r0x03, FSR0L
0E22 C000 FFE2 02025         MOVFF   r0x04, FSR0H
0E26 0E60      02026         MOVLW   0x60
0E28 6EE7      02027         MOVWF   INDF0
               02028 ;       .line   923; main.c     matrix_2[5][column-8-1]         = _COLOR_BLUE;
0E2A 0EF7      02029         MOVLW   0xf7
0E2C 2400      02030         ADDWF   r0x00, W
0E2E 6E00      02031         MOVWF   r0x03
0E30 0E00      02032         MOVLW   LOW(_matrix_2 + 40)
0E32 2400      02033         ADDWF   r0x03, W
0E34 6E00      02034         MOVWF   r0x04
0E36 6A00      02035         CLRF    r0x05
0E38 BE00      02036         BTFSC   r0x03, 7
0E3A 6800      02037         SETF    r0x05
0E3C 0E00      02038         MOVLW   HIGH(_matrix_2 + 40)
0E3E 2200      02039         ADDWFC  r0x05, F
0E40 C000 FFE1 02040         MOVFF   r0x04, FSR0L
0E44 C000 FFE2 02041         MOVFF   r0x05, FSR0H
0E48 0E40      02042         MOVLW   0x40
0E4A 6EE7      02043         MOVWF   INDF0
               02044 ;       .line   924; main.c     matrix_2[5][column-8-2]         = _COLOR_OFF;
0E4C 0EF6      02045         MOVLW   0xf6
0E4E 2600      02046         ADDWF   r0x00, F
0E50 0E00      02047         MOVLW   LOW(_matrix_2 + 40)
0E52 2400      02048         ADDWF   r0x00, W
0E54 6E00      02049         MOVWF   r0x04
0E56 6A00      02050         CLRF    r0x05
0E58 BE00      02051         BTFSC   r0x00, 7
0E5A 6800      02052         SETF    r0x05
gpasm-0.13.5 beta               _output/main__mios-gpasm-tmp.asm11-21-2009  19:30:07         PAGE 39


LOC  OBJECT CODE     LINE SOURCE TEXT
  VALUE
 
0E5C 0E00      02053         MOVLW   HIGH(_matrix_2 + 40)
0E5E 2200      02054         ADDWFC  r0x05, F
0E60 C000 FFE1 02055         MOVFF   r0x04, FSR0L
0E64 C000 FFE2 02056         MOVFF   r0x05, FSR0H
0E68 0E00      02057         MOVLW   0x00
0E6A 6EE7      02058         MOVWF   INDF0
               02059 ;       .line   925; main.c     matrix_2[7][column-8+1]         = _COLOR_WHITE;
0E6C 6A00      02060         CLRF    r0x04
0E6E BE00      02061         BTFSC   r0x01, 7
0E70 6800      02062         SETF    r0x04
0E72 0E00      02063         MOVLW   LOW(_matrix_2 + 56)
0E74 2600      02064         ADDWF   r0x01, F
0E76 0E00      02065         MOVLW   HIGH(_matrix_2 + 56)
0E78 2200      02066         ADDWFC  r0x04, F
0E7A C000 FFE1 02067         MOVFF   r0x01, FSR0L
0E7E C000 FFE2 02068         MOVFF   r0x04, FSR0H
0E82 0E70      02069         MOVLW   0x70
0E84 6EE7      02070         MOVWF   INDF0
               02071 ;       .line   926; main.c     matrix_2[7][column-8]           = _COLOR_CYAN;
0E86 6A00      02072         CLRF    r0x01
0E88 BE00      02073         BTFSC   r0x02, 7
0E8A 6800      02074         SETF    r0x01
0E8C 0E00      02075         MOVLW   LOW(_matrix_2 + 56)
0E8E 2600      02076         ADDWF   r0x02, F
0E90 0E00      02077         MOVLW   HIGH(_matrix_2 + 56)
0E92 2200      02078         ADDWFC  r0x01, F
0E94 C000 FFE1 02079         MOVFF   r0x02, FSR0L
0E98 C000 FFE2 02080         MOVFF   r0x01, FSR0H
0E9C 0E60      02081         MOVLW   0x60
0E9E 6EE7      02082         MOVWF   INDF0
               02083 ;       .line   927; main.c     matrix_2[7][column-8-1]         = _COLOR_BLUE;
0EA0 6A00      02084         CLRF    r0x01
0EA2 BE00      02085         BTFSC   r0x03, 7
0EA4 6800      02086         SETF    r0x01
0EA6 0E00      02087         MOVLW   LOW(_matrix_2 + 56)
0EA8 2600      02088         ADDWF   r0x03, F
0EAA 0E00      02089         MOVLW   HIGH(_matrix_2 + 56)
0EAC 2200      02090         ADDWFC  r0x01, F
0EAE C000 FFE1 02091         MOVFF   r0x03, FSR0L
0EB2 C000 FFE2 02092         MOVFF   r0x01, FSR0H
0EB6 0E40      02093         MOVLW   0x40
0EB8 6EE7      02094         MOVWF   INDF0
               02095 ;       .line   928; main.c     matrix_2[7][column-8-2]         = _COLOR_OFF;
0EBA 6A00      02096         CLRF    r0x01
0EBC BE00      02097         BTFSC   r0x00, 7
0EBE 6800      02098         SETF    r0x01
0EC0 0E00      02099         MOVLW   LOW(_matrix_2 + 56)
0EC2 2600      02100         ADDWF   r0x00, F
0EC4 0E00      02101         MOVLW   HIGH(_matrix_2 + 56)
0EC6 2200      02102         ADDWFC  r0x01, F
0EC8 C000 FFE1 02103         MOVFF   r0x00, FSR0L
0ECC C000 FFE2 02104         MOVFF   r0x01, FSR0H
0ED0 0E00      02105         MOVLW   0x00
0ED2 6EE7      02106         MOVWF   INDF0
gpasm-0.13.5 beta               _output/main__mios-gpasm-tmp.asm11-21-2009  19:30:07         PAGE 40


LOC  OBJECT CODE     LINE SOURCE TEXT
  VALUE
 
               02107 ;       .line   929; main.c     break;
0ED4 D000      02108         BRA     _00574_DS_
0ED6           02109 _00567_DS_:
0ED6 0000      02110         BANKSEL _DoMichaelKnightPattern_column_1_1
               02111 ;       .line   931; main.c     matrix_2[5][column-8]           = _COLOR_CYAN;
0ED8 5100      02112         MOVF    _DoMichaelKnightPattern_column_1_1, W, B
0EDA 6E00      02113         MOVWF   r0x00
0EDC 0EF8      02114         MOVLW   0xf8
0EDE 2400      02115         ADDWF   r0x00, W
0EE0 6E00      02116         MOVWF   r0x01
0EE2 0E00      02117         MOVLW   LOW(_matrix_2 + 40)
0EE4 2400      02118         ADDWF   r0x01, W
0EE6 6E00      02119         MOVWF   r0x02
0EE8 6A00      02120         CLRF    r0x03
0EEA BE00      02121         BTFSC   r0x01, 7
0EEC 6800      02122         SETF    r0x03
0EEE 0E00      02123         MOVLW   HIGH(_matrix_2 + 40)
0EF0 2200      02124         ADDWFC  r0x03, F
0EF2 C000 FFE1 02125         MOVFF   r0x02, FSR0L
0EF6 C000 FFE2 02126         MOVFF   r0x03, FSR0H
0EFA 0E60      02127         MOVLW   0x60
0EFC 6EE7      02128         MOVWF   INDF0
               02129 ;       .line   932; main.c     matrix_2[5][column-8-1]         = _COLOR_BLUE;
0EFE 0EF7      02130         MOVLW   0xf7
0F00 2400      02131         ADDWF   r0x00, W
0F02 6E00      02132         MOVWF   r0x02
0F04 0E00      02133         MOVLW   LOW(_matrix_2 + 40)
0F06 2400      02134         ADDWF   r0x02, W
0F08 6E00      02135         MOVWF   r0x03
0F0A 6A00      02136         CLRF    r0x04
0F0C BE00      02137         BTFSC   r0x02, 7
0F0E 6800      02138         SETF    r0x04
0F10 0E00      02139         MOVLW   HIGH(_matrix_2 + 40)
0F12 2200      02140         ADDWFC  r0x04, F
0F14 C000 FFE1 02141         MOVFF   r0x03, FSR0L
0F18 C000 FFE2 02142         MOVFF   r0x04, FSR0H
0F1C 0E40      02143         MOVLW   0x40
0F1E 6EE7      02144         MOVWF   INDF0
               02145 ;       .line   933; main.c     matrix_2[5][column-8-2]         = _COLOR_OFF;
0F20 0EF6      02146         MOVLW   0xf6
0F22 2600      02147         ADDWF   r0x00, F
0F24 0E00      02148         MOVLW   LOW(_matrix_2 + 40)
0F26 2400      02149         ADDWF   r0x00, W
0F28 6E00      02150         MOVWF   r0x03
0F2A 6A00      02151         CLRF    r0x04
0F2C BE00      02152         BTFSC   r0x00, 7
0F2E 6800      02153         SETF    r0x04
0F30 0E00      02154         MOVLW   HIGH(_matrix_2 + 40)
0F32 2200      02155         ADDWFC  r0x04, F
0F34 C000 FFE1 02156         MOVFF   r0x03, FSR0L
0F38 C000 FFE2 02157         MOVFF   r0x04, FSR0H
0F3C 0E00      02158         MOVLW   0x00
0F3E 6EE7      02159         MOVWF   INDF0
               02160 ;       .line   934; main.c     matrix_2[7][column-8]           = _COLOR_CYAN;
gpasm-0.13.5 beta               _output/main__mios-gpasm-tmp.asm11-21-2009  19:30:07         PAGE 41


LOC  OBJECT CODE     LINE SOURCE TEXT
  VALUE
 
0F40 6A00      02161         CLRF    r0x03
0F42 BE00      02162         BTFSC   r0x01, 7
0F44 6800      02163         SETF    r0x03
0F46 0E00      02164         MOVLW   LOW(_matrix_2 + 56)
0F48 2600      02165         ADDWF   r0x01, F
0F4A 0E00      02166         MOVLW   HIGH(_matrix_2 + 56)
0F4C 2200      02167         ADDWFC  r0x03, F
0F4E C000 FFE1 02168         MOVFF   r0x01, FSR0L
0F52 C000 FFE2 02169         MOVFF   r0x03, FSR0H
0F56 0E60      02170         MOVLW   0x60
0F58 6EE7      02171         MOVWF   INDF0
               02172 ;       .line   935; main.c     matrix_2[7][column-8-1]         = _COLOR_BLUE;
0F5A 6A00      02173         CLRF    r0x01
0F5C BE00      02174         BTFSC   r0x02, 7
0F5E 6800      02175         SETF    r0x01
0F60 0E00      02176         MOVLW   LOW(_matrix_2 + 56)
0F62 2600      02177         ADDWF   r0x02, F
0F64 0E00      02178         MOVLW   HIGH(_matrix_2 + 56)
0F66 2200      02179         ADDWFC  r0x01, F
0F68 C000 FFE1 02180         MOVFF   r0x02, FSR0L
0F6C C000 FFE2 02181         MOVFF   r0x01, FSR0H
0F70 0E40      02182         MOVLW   0x40
0F72 6EE7      02183         MOVWF   INDF0
               02184 ;       .line   936; main.c     matrix_2[7][column-8-2]         = _COLOR_OFF;
0F74 6A00      02185         CLRF    r0x01
0F76 BE00      02186         BTFSC   r0x00, 7
0F78 6800      02187         SETF    r0x01
0F7A 0E00      02188         MOVLW   LOW(_matrix_2 + 56)
0F7C 2600      02189         ADDWF   r0x00, F
0F7E 0E00      02190         MOVLW   HIGH(_matrix_2 + 56)
0F80 2200      02191         ADDWFC  r0x01, F
0F82 C000 FFE1 02192         MOVFF   r0x00, FSR0L
0F86 C000 FFE2 02193         MOVFF   r0x01, FSR0H
0F8A 0E00      02194         MOVLW   0x00
0F8C 6EE7      02195         MOVWF   INDF0
               02196 ;       .line   937; main.c     break;
0F8E D000      02197         BRA     _00574_DS_
0F90           02198 _00568_DS_:
0F90 0000      02199         BANKSEL _DoMichaelKnightPattern_column_1_1
               02200 ;       .line   939; main.c     matrix_2[5][column-8-1]         = _COLOR_BLUE;
0F92 5100      02201         MOVF    _DoMichaelKnightPattern_column_1_1, W, B
0F94 6E00      02202         MOVWF   r0x00
0F96 0EF7      02203         MOVLW   0xf7
0F98 2400      02204         ADDWF   r0x00, W
0F9A 6E00      02205         MOVWF   r0x01
0F9C 0E00      02206         MOVLW   LOW(_matrix_2 + 40)
0F9E 2400      02207         ADDWF   r0x01, W
0FA0 6E00      02208         MOVWF   r0x02
0FA2 6A00      02209         CLRF    r0x03
0FA4 BE00      02210         BTFSC   r0x01, 7
0FA6 6800      02211         SETF    r0x03
0FA8 0E00      02212         MOVLW   HIGH(_matrix_2 + 40)
0FAA 2200      02213         ADDWFC  r0x03, F
0FAC C000 FFE1 02214         MOVFF   r0x02, FSR0L
gpasm-0.13.5 beta               _output/main__mios-gpasm-tmp.asm11-21-2009  19:30:07         PAGE 42


LOC  OBJECT CODE     LINE SOURCE TEXT
  VALUE
 
0FB0 C000 FFE2 02215         MOVFF   r0x03, FSR0H
0FB4 0E40      02216         MOVLW   0x40
0FB6 6EE7      02217         MOVWF   INDF0
               02218 ;       .line   940; main.c     matrix_2[5][column-8-2]         = _COLOR_OFF;
0FB8 0EF6      02219         MOVLW   0xf6
0FBA 2600      02220         ADDWF   r0x00, F
0FBC 0E00      02221         MOVLW   LOW(_matrix_2 + 40)
0FBE 2400      02222         ADDWF   r0x00, W
0FC0 6E00      02223         MOVWF   r0x02
0FC2 6A00      02224         CLRF    r0x03
0FC4 BE00      02225         BTFSC   r0x00, 7
0FC6 6800      02226         SETF    r0x03
0FC8 0E00      02227         MOVLW   HIGH(_matrix_2 + 40)
0FCA 2200      02228         ADDWFC  r0x03, F
0FCC C000 FFE1 02229         MOVFF   r0x02, FSR0L
0FD0 C000 FFE2 02230         MOVFF   r0x03, FSR0H
0FD4 0E00      02231         MOVLW   0x00
0FD6 6EE7      02232         MOVWF   INDF0
               02233 ;       .line   941; main.c     matrix_2[7][column-8-1]         = _COLOR_BLUE;
0FD8 6A00      02234         CLRF    r0x02
0FDA BE00      02235         BTFSC   r0x01, 7
0FDC 6800      02236         SETF    r0x02
0FDE 0E00      02237         MOVLW   LOW(_matrix_2 + 56)
0FE0 2600      02238         ADDWF   r0x01, F
0FE2 0E00      02239         MOVLW   HIGH(_matrix_2 + 56)
0FE4 2200      02240         ADDWFC  r0x02, F
0FE6 C000 FFE1 02241         MOVFF   r0x01, FSR0L
0FEA C000 FFE2 02242         MOVFF   r0x02, FSR0H
0FEE 0E40      02243         MOVLW   0x40
0FF0 6EE7      02244         MOVWF   INDF0
               02245 ;       .line   942; main.c     matrix_2[7][column-8-2]         = _COLOR_OFF;
0FF2 6A00      02246         CLRF    r0x01
0FF4 BE00      02247         BTFSC   r0x00, 7
0FF6 6800      02248         SETF    r0x01
0FF8 0E00      02249         MOVLW   LOW(_matrix_2 + 56)
0FFA 2600      02250         ADDWF   r0x00, F
0FFC 0E00      02251         MOVLW   HIGH(_matrix_2 + 56)
0FFE 2200      02252         ADDWFC  r0x01, F
1000 C000 FFE1 02253         MOVFF   r0x00, FSR0L
1004 C000 FFE2 02254         MOVFF   r0x01, FSR0H
1008 0E00      02255         MOVLW   0x00
100A 6EE7      02256         MOVWF   INDF0
               02257 ;       .line   943; main.c     break;
100C D000      02258         BRA     _00574_DS_
100E           02259 _00569_DS_:
100E 0000      02260         BANKSEL _DoMichaelKnightPattern_column_1_1
               02261 ;       .line   945; main.c     matrix_2[5][column-8-2]         = _COLOR_OFF;
1010 5100      02262         MOVF    _DoMichaelKnightPattern_column_1_1, W, B
1012 6E00      02263         MOVWF   r0x00
1014 0EF6      02264         MOVLW   0xf6
1016 2600      02265         ADDWF   r0x00, F
1018 0E00      02266         MOVLW   LOW(_matrix_2 + 40)
101A 2400      02267         ADDWF   r0x00, W
101C 6E00      02268         MOVWF   r0x01
gpasm-0.13.5 beta               _output/main__mios-gpasm-tmp.asm11-21-2009  19:30:07         PAGE 43


LOC  OBJECT CODE     LINE SOURCE TEXT
  VALUE
 
101E 6A00      02269         CLRF    r0x02
1020 BE00      02270         BTFSC   r0x00, 7
1022 6800      02271         SETF    r0x02
1024 0E00      02272         MOVLW   HIGH(_matrix_2 + 40)
1026 2200      02273         ADDWFC  r0x02, F
1028 C000 FFE1 02274         MOVFF   r0x01, FSR0L
102C C000 FFE2 02275         MOVFF   r0x02, FSR0H
1030 0E00      02276         MOVLW   0x00
1032 6EE7      02277         MOVWF   INDF0
               02278 ;       .line   946; main.c     matrix_2[7][column-8-2]         = _COLOR_OFF;
1034 6A00      02279         CLRF    r0x01
1036 BE00      02280         BTFSC   r0x00, 7
1038 6800      02281         SETF    r0x01
103A 0E00      02282         MOVLW   LOW(_matrix_2 + 56)
103C 2600      02283         ADDWF   r0x00, F
103E 0E00      02284         MOVLW   HIGH(_matrix_2 + 56)
1040 2200      02285         ADDWFC  r0x01, F
1042 C000 FFE1 02286         MOVFF   r0x00, FSR0L
1046 C000 FFE2 02287         MOVFF   r0x01, FSR0H
104A 0E00      02288         MOVLW   0x00
104C 6EE7      02289         MOVWF   INDF0
104E           02290 _00574_DS_:
104E 0000      02291         BANKSEL _DoMichaelKnightPattern_column_1_1
               02292 ;       .line   777; main.c     for (column = -2; column < 21; column++)
1050 2B00      02293         INCF    _DoMichaelKnightPattern_column_1_1, F, B
1052 E300      02294         BNC     _10551_DS_
               02295 ; removed redundant BANKSEL
1054 2B00      02296         INCF    (_DoMichaelKnightPattern_column_1_1 + 1), F, B
1056           02297 _10551_DS_:
1056 EF00 F000 02298         GOTO    _00572_DS_
105A           02299 _00575_DS_:
               02300 ;       .line   953; main.c     ClearMatrix(1);
105A 0E00      02301         MOVLW   0x00
105C 6EED      02302         MOVWF   POSTDEC1
105E 0E01      02303         MOVLW   0x01
1060 EC00 F000 02304         CALL    _ClearMatrix
1064 2AE9      02305         INCF    FSR1L, F
               02306 ;       .line   954; main.c     ClearMatrix(2);
1066 0E00      02307         MOVLW   0x00
1068 6EED      02308         MOVWF   POSTDEC1
106A 0E02      02309         MOVLW   0x02
106C EC00 F000 02310         CALL    _ClearMatrix
1070 2AE9      02311         INCF    FSR1L, F
1072 CFEC F000 02312         MOVFF   PREINC1, r0x05
1076 CFEC F000 02313         MOVFF   PREINC1, r0x04
107A CFEC F000 02314         MOVFF   PREINC1, r0x03
107E CFEC F000 02315         MOVFF   PREINC1, r0x02
1082 CFEC F000 02316         MOVFF   PREINC1, r0x01
1086 CFEC F000 02317         MOVFF   PREINC1, r0x00
108A 0012      02318         RETURN  
               02319 
               02320 ; ; Starting pCode block
               02321 S_main__TestMatrix2     code
0000           02322 _TestMatrix2:
gpasm-0.13.5 beta               _output/main__mios-gpasm-tmp.asm11-21-2009  19:30:07         PAGE 44


LOC  OBJECT CODE     LINE SOURCE TEXT
  VALUE
 
               02323 ;       .line   748; main.c     void TestMatrix2(void) __wparam
0000 C000 FFED 02324         MOVFF   r0x00, POSTDEC1
0004 C000 FFED 02325         MOVFF   r0x01, POSTDEC1
0008 C000 FFED 02326         MOVFF   r0x02, POSTDEC1
000C C000 FFED 02327         MOVFF   r0x03, POSTDEC1
               02328 ;       .line   752; main.c     ClearMatrix(1);
0010 0E00      02329         MOVLW   0x00
0012 6EED      02330         MOVWF   POSTDEC1
0014 0E01      02331         MOVLW   0x01
0016 EC00 F000 02332         CALL    _ClearMatrix
001A 2AE9      02333         INCF    FSR1L, F
               02334 ;       .line   753; main.c     ClearMatrix(2);
001C 0E00      02335         MOVLW   0x00
001E 6EED      02336         MOVWF   POSTDEC1
0020 0E02      02337         MOVLW   0x02
0022 EC00 F000 02338         CALL    _ClearMatrix
0026 2AE9      02339         INCF    FSR1L, F
0028 0000      02340         BANKSEL _TestMatrix2_row_1_1
               02341 ;       .line   754; main.c     for (row = 0; row < 8; row++)
002A 6B00      02342         CLRF    _TestMatrix2_row_1_1, B
               02343 ; removed redundant BANKSEL
002C 6B00      02344         CLRF    (_TestMatrix2_row_1_1 + 1), B
002E           02345 _00532_DS_:
002E 0000      02346         BANKSEL (_TestMatrix2_row_1_1 + 1)
0030 5100      02347         MOVF    (_TestMatrix2_row_1_1 + 1), W, B
0032 0F80      02348         ADDLW   0x80
0034 0F80      02349         ADDLW   0x80
0036 E100      02350         BNZ     _00544_DS_
0038 0E08      02351         MOVLW   0x08
               02352 ; removed redundant BANKSEL
003A 5D00      02353         SUBWF   _TestMatrix2_row_1_1, W, B
003C           02354 _00544_DS_:
003C B0D8      02355         BTFSC   STATUS, 0
003E D000      02356         BRA     _00535_DS_
0040 0000      02357         BANKSEL _TestMatrix2_column_1_1
               02358 ;       .line   756; main.c     for (column = 0; column < 8; column++)
0042 6B00      02359         CLRF    _TestMatrix2_column_1_1, B
               02360 ; removed redundant BANKSEL
0044 6B00      02361         CLRF    (_TestMatrix2_column_1_1 + 1), B
0046           02362 _00524_DS_:
0046 0E00      02363         MOVLW   0x00
0048 0000      02364         BANKSEL (_TestMatrix2_column_1_1 + 1)
004A 5D00      02365         SUBWF   (_TestMatrix2_column_1_1 + 1), W, B
004C E100      02366         BNZ     _00545_DS_
004E 0E08      02367         MOVLW   0x08
               02368 ; removed redundant BANKSEL
0050 5D00      02369         SUBWF   _TestMatrix2_column_1_1, W, B
0052           02370 _00545_DS_:
0052 E200      02371         BC      _00527_DS_
0054 0000      02372         BANKSEL (_TestMatrix2_row_1_1 + 1)
               02373 ;       .line   758; main.c     matrix_2[row][column] = _COLOR_WHITE;
0056 5100      02374         MOVF    (_TestMatrix2_row_1_1 + 1), W, B
0058 6EED      02375         MOVWF   POSTDEC1
               02376 ; removed redundant BANKSEL
gpasm-0.13.5 beta               _output/main__mios-gpasm-tmp.asm11-21-2009  19:30:07         PAGE 45


LOC  OBJECT CODE     LINE SOURCE TEXT
  VALUE
 
005A 5100      02377         MOVF    _TestMatrix2_row_1_1, W, B
005C 6EED      02378         MOVWF   POSTDEC1
005E 0E00      02379         MOVLW   0x00
0060 6EED      02380         MOVWF   POSTDEC1
0062 0E08      02381         MOVLW   0x08
0064 6EED      02382         MOVWF   POSTDEC1
0066 EC00 F000 02383         CALL    __mulint
006A 6E00      02384         MOVWF   r0x00
006C CFF3 F000 02385         MOVFF   PRODL, r0x01
0070 0E04      02386         MOVLW   0x04
0072 26E9      02387         ADDWF   FSR1L, F
0074 0E00      02388         MOVLW   LOW(_matrix_2)
0076 2600      02389         ADDWF   r0x00, F
0078 0E00      02390         MOVLW   HIGH(_matrix_2)
007A 2200      02391         ADDWFC  r0x01, F
007C C000 F000 02392         MOVFF   _TestMatrix2_column_1_1, r0x02
0080 C000 F000 02393         MOVFF   (_TestMatrix2_column_1_1 + 1), r0x03
0084 5000      02394         MOVF    r0x02, W
0086 2600      02395         ADDWF   r0x00, F
0088 5000      02396         MOVF    r0x03, W
008A 2200      02397         ADDWFC  r0x01, F
008C C000 FFE1 02398         MOVFF   r0x00, FSR0L
0090 C000 FFE2 02399         MOVFF   r0x01, FSR0H
0094 0E70      02400         MOVLW   0x70
0096 6EE7      02401         MOVWF   INDF0
0098 0000      02402         BANKSEL _TestMatrix2_column_1_1
               02403 ;       .line   756; main.c     for (column = 0; column < 8; column++)
009A 2B00      02404         INCF    _TestMatrix2_column_1_1, F, B
009C E300      02405         BNC     _20552_DS_
               02406 ; removed redundant BANKSEL
009E 2B00      02407         INCF    (_TestMatrix2_column_1_1 + 1), F, B
00A0           02408 _20552_DS_:
00A0 D000      02409         BRA     _00524_DS_
00A2           02410 _00527_DS_:
00A2 0000      02411         BANKSEL _TestMatrix2_column_1_1
               02412 ;       .line   760; main.c     for (column = 0; column < 8; column++)
00A4 6B00      02413         CLRF    _TestMatrix2_column_1_1, B
               02414 ; removed redundant BANKSEL
00A6 6B00      02415         CLRF    (_TestMatrix2_column_1_1 + 1), B
00A8           02416 _00528_DS_:
00A8 0E00      02417         MOVLW   0x00
00AA 0000      02418         BANKSEL (_TestMatrix2_column_1_1 + 1)
00AC 5D00      02419         SUBWF   (_TestMatrix2_column_1_1 + 1), W, B
00AE E100      02420         BNZ     _00546_DS_
00B0 0E08      02421         MOVLW   0x08
               02422 ; removed redundant BANKSEL
00B2 5D00      02423         SUBWF   _TestMatrix2_column_1_1, W, B
00B4           02424 _00546_DS_:
00B4 E200      02425         BC      _00531_DS_
00B6 0000      02426         BANKSEL _TestMatrix2_row_1_1
               02427 ;       .line   762; main.c     matrix_2[row-1][column] = _COLOR_OFF;
00B8 5100      02428         MOVF    _TestMatrix2_row_1_1, W, B
00BA 6E00      02429         MOVWF   r0x00
00BC 0600      02430         DECF    r0x00, F
gpasm-0.13.5 beta               _output/main__mios-gpasm-tmp.asm11-21-2009  19:30:07         PAGE 46


LOC  OBJECT CODE     LINE SOURCE TEXT
  VALUE
 
               02431 ; ;multiply lit val:0x08 by variable r0x00 and store in r0x00
               02432 ; ;Unrolled 8 X 8 multiplication
               02433 ; ;FIXME: the function does not support result==WREG
00BE 5000      02434         MOVF    r0x00, W
00C0 0D08      02435         MULLW   0x08
00C2 CFF3 F000 02436         MOVFF   PRODL, r0x00
00C6 6A00      02437         CLRF    r0x01
00C8 BE00      02438         BTFSC   r0x00, 7
00CA 6800      02439         SETF    r0x01
00CC 0E00      02440         MOVLW   LOW(_matrix_2)
00CE 2600      02441         ADDWF   r0x00, F
00D0 0E00      02442         MOVLW   HIGH(_matrix_2)
00D2 2200      02443         ADDWFC  r0x01, F
00D4 C000 F000 02444         MOVFF   _TestMatrix2_column_1_1, r0x02
00D8 C000 F000 02445         MOVFF   (_TestMatrix2_column_1_1 + 1), r0x03
00DC 5000      02446         MOVF    r0x02, W
00DE 2600      02447         ADDWF   r0x00, F
00E0 5000      02448         MOVF    r0x03, W
00E2 2200      02449         ADDWFC  r0x01, F
00E4 C000 FFE1 02450         MOVFF   r0x00, FSR0L
00E8 C000 FFE2 02451         MOVFF   r0x01, FSR0H
00EC 0E00      02452         MOVLW   0x00
00EE 6EE7      02453         MOVWF   INDF0
00F0 0000      02454         BANKSEL _TestMatrix2_column_1_1
               02455 ;       .line   760; main.c     for (column = 0; column < 8; column++)
00F2 2B00      02456         INCF    _TestMatrix2_column_1_1, F, B
00F4 E300      02457         BNC     _30553_DS_
               02458 ; removed redundant BANKSEL
00F6 2B00      02459         INCF    (_TestMatrix2_column_1_1 + 1), F, B
00F8           02460 _30553_DS_:
00F8 D000      02461         BRA     _00528_DS_
00FA           02462 _00531_DS_:
               02463 ;       .line   764; main.c     MIOS_Delay(250);
00FA 0EFA      02464         MOVLW   0xfa
00FC EC00 F000 02465         CALL    _MIOS_Delay
               02466 ;       .line   765; main.c     MIOS_Delay(250);
0100 0EFA      02467         MOVLW   0xfa
0102 EC00 F000 02468         CALL    _MIOS_Delay
0106 0000      02469         BANKSEL _TestMatrix2_row_1_1
               02470 ;       .line   754; main.c     for (row = 0; row < 8; row++)
0108 2B00      02471         INCF    _TestMatrix2_row_1_1, F, B
010A E300      02472         BNC     _40554_DS_
               02473 ; removed redundant BANKSEL
010C 2B00      02474         INCF    (_TestMatrix2_row_1_1 + 1), F, B
010E           02475 _40554_DS_:
010E D000      02476         BRA     _00532_DS_
0110           02477 _00535_DS_:
               02478 ;       .line   767; main.c     ClearMatrix(1);
0110 0E00      02479         MOVLW   0x00
0112 6EED      02480         MOVWF   POSTDEC1
0114 0E01      02481         MOVLW   0x01
0116 EC00 F000 02482         CALL    _ClearMatrix
011A 2AE9      02483         INCF    FSR1L, F
               02484 ;       .line   768; main.c     ClearMatrix(2);
gpasm-0.13.5 beta               _output/main__mios-gpasm-tmp.asm11-21-2009  19:30:07         PAGE 47


LOC  OBJECT CODE     LINE SOURCE TEXT
  VALUE
 
011C 0E00      02485         MOVLW   0x00
011E 6EED      02486         MOVWF   POSTDEC1
0120 0E02      02487         MOVLW   0x02
0122 EC00 F000 02488         CALL    _ClearMatrix
0126 2AE9      02489         INCF    FSR1L, F
0128 CFEC F000 02490         MOVFF   PREINC1, r0x03
012C CFEC F000 02491         MOVFF   PREINC1, r0x02
0130 CFEC F000 02492         MOVFF   PREINC1, r0x01
0134 CFEC F000 02493         MOVFF   PREINC1, r0x00
0138 0012      02494         RETURN  
               02495 
               02496 ; ; Starting pCode block
               02497 S_main__TestMatrix1     code
0000           02498 _TestMatrix1:
               02499 ;       .line   725; main.c     void TestMatrix1(void) __wparam
0000 C000 FFED 02500         MOVFF   r0x00, POSTDEC1
0004 C000 FFED 02501         MOVFF   r0x01, POSTDEC1
0008 C000 FFED 02502         MOVFF   r0x02, POSTDEC1
000C C000 FFED 02503         MOVFF   r0x03, POSTDEC1
               02504 ;       .line   729; main.c     ClearMatrix(1);
0010 0E00      02505         MOVLW   0x00
0012 6EED      02506         MOVWF   POSTDEC1
0014 0E01      02507         MOVLW   0x01
0016 EC00 F000 02508         CALL    _ClearMatrix
001A 2AE9      02509         INCF    FSR1L, F
               02510 ;       .line   730; main.c     ClearMatrix(2);
001C 0E00      02511         MOVLW   0x00
001E 6EED      02512         MOVWF   POSTDEC1
0020 0E02      02513         MOVLW   0x02
0022 EC00 F000 02514         CALL    _ClearMatrix
0026 2AE9      02515         INCF    FSR1L, F
0028 0000      02516         BANKSEL _TestMatrix1_row_1_1
               02517 ;       .line   731; main.c     for (row = 0; row < 8; row++)
002A 6B00      02518         CLRF    _TestMatrix1_row_1_1, B
               02519 ; removed redundant BANKSEL
002C 6B00      02520         CLRF    (_TestMatrix1_row_1_1 + 1), B
002E           02521 _00505_DS_:
002E 0000      02522         BANKSEL (_TestMatrix1_row_1_1 + 1)
0030 5100      02523         MOVF    (_TestMatrix1_row_1_1 + 1), W, B
0032 0F80      02524         ADDLW   0x80
0034 0F80      02525         ADDLW   0x80
0036 E100      02526         BNZ     _00517_DS_
0038 0E08      02527         MOVLW   0x08
               02528 ; removed redundant BANKSEL
003A 5D00      02529         SUBWF   _TestMatrix1_row_1_1, W, B
003C           02530 _00517_DS_:
003C B0D8      02531         BTFSC   STATUS, 0
003E D000      02532         BRA     _00508_DS_
0040 0000      02533         BANKSEL _TestMatrix1_column_1_1
               02534 ;       .line   733; main.c     for (column = 0; column < 8; column++)
0042 6B00      02535         CLRF    _TestMatrix1_column_1_1, B
               02536 ; removed redundant BANKSEL
0044 6B00      02537         CLRF    (_TestMatrix1_column_1_1 + 1), B
0046           02538 _00497_DS_:
gpasm-0.13.5 beta               _output/main__mios-gpasm-tmp.asm11-21-2009  19:30:07         PAGE 48


LOC  OBJECT CODE     LINE SOURCE TEXT
  VALUE
 
0046 0E00      02539         MOVLW   0x00
0048 0000      02540         BANKSEL (_TestMatrix1_column_1_1 + 1)
004A 5D00      02541         SUBWF   (_TestMatrix1_column_1_1 + 1), W, B
004C E100      02542         BNZ     _00518_DS_
004E 0E08      02543         MOVLW   0x08
               02544 ; removed redundant BANKSEL
0050 5D00      02545         SUBWF   _TestMatrix1_column_1_1, W, B
0052           02546 _00518_DS_:
0052 E200      02547         BC      _00500_DS_
0054 0000      02548         BANKSEL (_TestMatrix1_row_1_1 + 1)
               02549 ;       .line   735; main.c     matrix_1[row][column] = _COLOR_WHITE;
0056 5100      02550         MOVF    (_TestMatrix1_row_1_1 + 1), W, B
0058 6EED      02551         MOVWF   POSTDEC1
               02552 ; removed redundant BANKSEL
005A 5100      02553         MOVF    _TestMatrix1_row_1_1, W, B
005C 6EED      02554         MOVWF   POSTDEC1
005E 0E00      02555         MOVLW   0x00
0060 6EED      02556         MOVWF   POSTDEC1
0062 0E08      02557         MOVLW   0x08
0064 6EED      02558         MOVWF   POSTDEC1
0066 EC00 F000 02559         CALL    __mulint
006A 6E00      02560         MOVWF   r0x00
006C CFF3 F000 02561         MOVFF   PRODL, r0x01
0070 0E04      02562         MOVLW   0x04
0072 26E9      02563         ADDWF   FSR1L, F
0074 0E00      02564         MOVLW   LOW(_matrix_1)
0076 2600      02565         ADDWF   r0x00, F
0078 0E00      02566         MOVLW   HIGH(_matrix_1)
007A 2200      02567         ADDWFC  r0x01, F
007C C000 F000 02568         MOVFF   _TestMatrix1_column_1_1, r0x02
0080 C000 F000 02569         MOVFF   (_TestMatrix1_column_1_1 + 1), r0x03
0084 5000      02570         MOVF    r0x02, W
0086 2600      02571         ADDWF   r0x00, F
0088 5000      02572         MOVF    r0x03, W
008A 2200      02573         ADDWFC  r0x01, F
008C C000 FFE1 02574         MOVFF   r0x00, FSR0L
0090 C000 FFE2 02575         MOVFF   r0x01, FSR0H
0094 0E70      02576         MOVLW   0x70
0096 6EE7      02577         MOVWF   INDF0
0098 0000      02578         BANKSEL _TestMatrix1_column_1_1
               02579 ;       .line   733; main.c     for (column = 0; column < 8; column++)
009A 2B00      02580         INCF    _TestMatrix1_column_1_1, F, B
009C E300      02581         BNC     _50555_DS_
               02582 ; removed redundant BANKSEL
009E 2B00      02583         INCF    (_TestMatrix1_column_1_1 + 1), F, B
00A0           02584 _50555_DS_:
00A0 D000      02585         BRA     _00497_DS_
00A2           02586 _00500_DS_:
00A2 0000      02587         BANKSEL _TestMatrix1_column_1_1
               02588 ;       .line   737; main.c     for (column = 0; column < 8; column++)
00A4 6B00      02589         CLRF    _TestMatrix1_column_1_1, B
               02590 ; removed redundant BANKSEL
00A6 6B00      02591         CLRF    (_TestMatrix1_column_1_1 + 1), B
00A8           02592 _00501_DS_:
gpasm-0.13.5 beta               _output/main__mios-gpasm-tmp.asm11-21-2009  19:30:07         PAGE 49


LOC  OBJECT CODE     LINE SOURCE TEXT
  VALUE
 
00A8 0E00      02593         MOVLW   0x00
00AA 0000      02594         BANKSEL (_TestMatrix1_column_1_1 + 1)
00AC 5D00      02595         SUBWF   (_TestMatrix1_column_1_1 + 1), W, B
00AE E100      02596         BNZ     _00519_DS_
00B0 0E08      02597         MOVLW   0x08
               02598 ; removed redundant BANKSEL
00B2 5D00      02599         SUBWF   _TestMatrix1_column_1_1, W, B
00B4           02600 _00519_DS_:
00B4 E200      02601         BC      _00504_DS_
00B6 0000      02602         BANKSEL _TestMatrix1_row_1_1
               02603 ;       .line   739; main.c     matrix_1[row-1][column] = _COLOR_OFF;
00B8 5100      02604         MOVF    _TestMatrix1_row_1_1, W, B
00BA 6E00      02605         MOVWF   r0x00
00BC 0600      02606         DECF    r0x00, F
               02607 ; ;multiply lit val:0x08 by variable r0x00 and store in r0x00
               02608 ; ;Unrolled 8 X 8 multiplication
               02609 ; ;FIXME: the function does not support result==WREG
00BE 5000      02610         MOVF    r0x00, W
00C0 0D08      02611         MULLW   0x08
00C2 CFF3 F000 02612         MOVFF   PRODL, r0x00
00C6 6A00      02613         CLRF    r0x01
00C8 BE00      02614         BTFSC   r0x00, 7
00CA 6800      02615         SETF    r0x01
00CC 0E00      02616         MOVLW   LOW(_matrix_1)
00CE 2600      02617         ADDWF   r0x00, F
00D0 0E00      02618         MOVLW   HIGH(_matrix_1)
00D2 2200      02619         ADDWFC  r0x01, F
00D4 C000 F000 02620         MOVFF   _TestMatrix1_column_1_1, r0x02
00D8 C000 F000 02621         MOVFF   (_TestMatrix1_column_1_1 + 1), r0x03
00DC 5000      02622         MOVF    r0x02, W
00DE 2600      02623         ADDWF   r0x00, F
00E0 5000      02624         MOVF    r0x03, W
00E2 2200      02625         ADDWFC  r0x01, F
00E4 C000 FFE1 02626         MOVFF   r0x00, FSR0L
00E8 C000 FFE2 02627         MOVFF   r0x01, FSR0H
00EC 0E00      02628         MOVLW   0x00
00EE 6EE7      02629         MOVWF   INDF0
00F0 0000      02630         BANKSEL _TestMatrix1_column_1_1
               02631 ;       .line   737; main.c     for (column = 0; column < 8; column++)
00F2 2B00      02632         INCF    _TestMatrix1_column_1_1, F, B
00F4 E300      02633         BNC     _60556_DS_
               02634 ; removed redundant BANKSEL
00F6 2B00      02635         INCF    (_TestMatrix1_column_1_1 + 1), F, B
00F8           02636 _60556_DS_:
00F8 D000      02637         BRA     _00501_DS_
00FA           02638 _00504_DS_:
               02639 ;       .line   741; main.c     MIOS_Delay(250);
00FA 0EFA      02640         MOVLW   0xfa
00FC EC00 F000 02641         CALL    _MIOS_Delay
               02642 ;       .line   742; main.c     MIOS_Delay(250);
0100 0EFA      02643         MOVLW   0xfa
0102 EC00 F000 02644         CALL    _MIOS_Delay
0106 0000      02645         BANKSEL _TestMatrix1_row_1_1
               02646 ;       .line   731; main.c     for (row = 0; row < 8; row++)
gpasm-0.13.5 beta               _output/main__mios-gpasm-tmp.asm11-21-2009  19:30:07         PAGE 50


LOC  OBJECT CODE     LINE SOURCE TEXT
  VALUE
 
0108 2B00      02647         INCF    _TestMatrix1_row_1_1, F, B
010A E300      02648         BNC     _70557_DS_
               02649 ; removed redundant BANKSEL
010C 2B00      02650         INCF    (_TestMatrix1_row_1_1 + 1), F, B
010E           02651 _70557_DS_:
010E D000      02652         BRA     _00505_DS_
0110           02653 _00508_DS_:
               02654 ;       .line   744; main.c     ClearMatrix(1);
0110 0E00      02655         MOVLW   0x00
0112 6EED      02656         MOVWF   POSTDEC1
0114 0E01      02657         MOVLW   0x01
0116 EC00 F000 02658         CALL    _ClearMatrix
011A 2AE9      02659         INCF    FSR1L, F
               02660 ;       .line   745; main.c     ClearMatrix(2);
011C 0E00      02661         MOVLW   0x00
011E 6EED      02662         MOVWF   POSTDEC1
0120 0E02      02663         MOVLW   0x02
0122 EC00 F000 02664         CALL    _ClearMatrix
0126 2AE9      02665         INCF    FSR1L, F
0128 CFEC F000 02666         MOVFF   PREINC1, r0x03
012C CFEC F000 02667         MOVFF   PREINC1, r0x02
0130 CFEC F000 02668         MOVFF   PREINC1, r0x01
0134 CFEC F000 02669         MOVFF   PREINC1, r0x00
0138 0012      02670         RETURN  
               02671 
               02672 ; ; Starting pCode block
               02673 S_main__DoShutdownPattern       code
0000           02674 _DoShutdownPattern:
               02675 ;       .line   701; main.c     void DoShutdownPattern(void) __wparam
0000 C000 FFED 02676         MOVFF   r0x00, POSTDEC1
0004 C000 FFED 02677         MOVFF   r0x01, POSTDEC1
0008 C000 FFED 02678         MOVFF   r0x02, POSTDEC1
000C C000 FFED 02679         MOVFF   r0x03, POSTDEC1
               02680 ;       .line   705; main.c     ClearMatrix(2);
0010 0E00      02681         MOVLW   0x00
0012 6EED      02682         MOVWF   POSTDEC1
0014 0E02      02683         MOVLW   0x02
0016 EC00 F000 02684         CALL    _ClearMatrix
001A 2AE9      02685         INCF    FSR1L, F
001C 0000      02686         BANKSEL _DoShutdownPattern_row_1_1
               02687 ;       .line   706; main.c     for (row = 0; row < 8; row++)
001E 6B00      02688         CLRF    _DoShutdownPattern_row_1_1, B
               02689 ; removed redundant BANKSEL
0020 6B00      02690         CLRF    (_DoShutdownPattern_row_1_1 + 1), B
0022           02691 _00478_DS_:
0022 0E00      02692         MOVLW   0x00
0024 0000      02693         BANKSEL (_DoShutdownPattern_row_1_1 + 1)
0026 5D00      02694         SUBWF   (_DoShutdownPattern_row_1_1 + 1), W, B
0028 E100      02695         BNZ     _00490_DS_
002A 0E08      02696         MOVLW   0x08
               02697 ; removed redundant BANKSEL
002C 5D00      02698         SUBWF   _DoShutdownPattern_row_1_1, W, B
002E           02699 _00490_DS_:
002E B0D8      02700         BTFSC   STATUS, 0
gpasm-0.13.5 beta               _output/main__mios-gpasm-tmp.asm11-21-2009  19:30:07         PAGE 51


LOC  OBJECT CODE     LINE SOURCE TEXT
  VALUE
 
0030 D000      02701         BRA     _00481_DS_
0032 0000      02702         BANKSEL _DoShutdownPattern_column_1_1
               02703 ;       .line   708; main.c     for (column = 0; column < 8; column++)
0034 6B00      02704         CLRF    _DoShutdownPattern_column_1_1, B
               02705 ; removed redundant BANKSEL
0036 6B00      02706         CLRF    (_DoShutdownPattern_column_1_1 + 1), B
0038           02707 _00470_DS_:
0038 0E00      02708         MOVLW   0x00
003A 0000      02709         BANKSEL (_DoShutdownPattern_column_1_1 + 1)
003C 5D00      02710         SUBWF   (_DoShutdownPattern_column_1_1 + 1), W, B
003E E100      02711         BNZ     _00491_DS_
0040 0E08      02712         MOVLW   0x08
               02713 ; removed redundant BANKSEL
0042 5D00      02714         SUBWF   _DoShutdownPattern_column_1_1, W, B
0044           02715 _00491_DS_:
0044 E200      02716         BC      _00473_DS_
0046 0000      02717         BANKSEL (_DoShutdownPattern_row_1_1 + 1)
               02718 ;       .line   710; main.c     matrix_1[row][column] = _COLOR_BLUE;
0048 5100      02719         MOVF    (_DoShutdownPattern_row_1_1 + 1), W, B
004A 6EED      02720         MOVWF   POSTDEC1
               02721 ; removed redundant BANKSEL
004C 5100      02722         MOVF    _DoShutdownPattern_row_1_1, W, B
004E 6EED      02723         MOVWF   POSTDEC1
0050 0E00      02724         MOVLW   0x00
0052 6EED      02725         MOVWF   POSTDEC1
0054 0E08      02726         MOVLW   0x08
0056 6EED      02727         MOVWF   POSTDEC1
0058 EC00 F000 02728         CALL    __mulint
005C 6E00      02729         MOVWF   r0x00
005E CFF3 F000 02730         MOVFF   PRODL, r0x01
0062 0E04      02731         MOVLW   0x04
0064 26E9      02732         ADDWF   FSR1L, F
0066 0E00      02733         MOVLW   LOW(_matrix_1)
0068 2600      02734         ADDWF   r0x00, F
006A 0E00      02735         MOVLW   HIGH(_matrix_1)
006C 2200      02736         ADDWFC  r0x01, F
006E C000 F000 02737         MOVFF   _DoShutdownPattern_column_1_1, r0x02
0072 C000 F000 02738         MOVFF   (_DoShutdownPattern_column_1_1 + 1), r0x03
0076 5000      02739         MOVF    r0x02, W
0078 2600      02740         ADDWF   r0x00, F
007A 5000      02741         MOVF    r0x03, W
007C 2200      02742         ADDWFC  r0x01, F
007E C000 FFE1 02743         MOVFF   r0x00, FSR0L
0082 C000 FFE2 02744         MOVFF   r0x01, FSR0H
0086 0E40      02745         MOVLW   0x40
0088 6EE7      02746         MOVWF   INDF0
008A 0000      02747         BANKSEL _DoShutdownPattern_column_1_1
               02748 ;       .line   708; main.c     for (column = 0; column < 8; column++)
008C 2B00      02749         INCF    _DoShutdownPattern_column_1_1, F, B
008E E300      02750         BNC     _80558_DS_
               02751 ; removed redundant BANKSEL
0090 2B00      02752         INCF    (_DoShutdownPattern_column_1_1 + 1), F, B
0092           02753 _80558_DS_:
0092 D000      02754         BRA     _00470_DS_
gpasm-0.13.5 beta               _output/main__mios-gpasm-tmp.asm11-21-2009  19:30:07         PAGE 52


LOC  OBJECT CODE     LINE SOURCE TEXT
  VALUE
 
0094           02755 _00473_DS_:
0094 0000      02756         BANKSEL _DoShutdownPattern_column_1_1
               02757 ;       .line   712; main.c     for (column = 0; column < 8; column++)
0096 6B00      02758         CLRF    _DoShutdownPattern_column_1_1, B
               02759 ; removed redundant BANKSEL
0098 6B00      02760         CLRF    (_DoShutdownPattern_column_1_1 + 1), B
009A           02761 _00474_DS_:
009A 0E00      02762         MOVLW   0x00
009C 0000      02763         BANKSEL (_DoShutdownPattern_column_1_1 + 1)
009E 5D00      02764         SUBWF   (_DoShutdownPattern_column_1_1 + 1), W, B
00A0 E100      02765         BNZ     _00492_DS_
00A2 0E08      02766         MOVLW   0x08
               02767 ; removed redundant BANKSEL
00A4 5D00      02768         SUBWF   _DoShutdownPattern_column_1_1, W, B
00A6           02769 _00492_DS_:
00A6 E200      02770         BC      _00477_DS_
00A8 0000      02771         BANKSEL _DoShutdownPattern_row_1_1
               02772 ;       .line   714; main.c     matrix_1[row-1][column] = _COLOR_OFF;
00AA 5100      02773         MOVF    _DoShutdownPattern_row_1_1, W, B
00AC 6E00      02774         MOVWF   r0x00
00AE 0600      02775         DECF    r0x00, F
               02776 ; ;multiply lit val:0x08 by variable r0x00 and store in r0x00
               02777 ; ;Unrolled 8 X 8 multiplication
               02778 ; ;FIXME: the function does not support result==WREG
00B0 5000      02779         MOVF    r0x00, W
00B2 0D08      02780         MULLW   0x08
00B4 CFF3 F000 02781         MOVFF   PRODL, r0x00
00B8 6A00      02782         CLRF    r0x01
00BA 0E00      02783         MOVLW   LOW(_matrix_1)
00BC 2600      02784         ADDWF   r0x00, F
00BE 0E00      02785         MOVLW   HIGH(_matrix_1)
00C0 2200      02786         ADDWFC  r0x01, F
00C2 C000 F000 02787         MOVFF   _DoShutdownPattern_column_1_1, r0x02
00C6 C000 F000 02788         MOVFF   (_DoShutdownPattern_column_1_1 + 1), r0x03
00CA 5000      02789         MOVF    r0x02, W
00CC 2600      02790         ADDWF   r0x00, F
00CE 5000      02791         MOVF    r0x03, W
00D0 2200      02792         ADDWFC  r0x01, F
00D2 C000 FFE1 02793         MOVFF   r0x00, FSR0L
00D6 C000 FFE2 02794         MOVFF   r0x01, FSR0H
00DA 0E00      02795         MOVLW   0x00
00DC 6EE7      02796         MOVWF   INDF0
00DE 0000      02797         BANKSEL _DoShutdownPattern_column_1_1
               02798 ;       .line   712; main.c     for (column = 0; column < 8; column++)
00E0 2B00      02799         INCF    _DoShutdownPattern_column_1_1, F, B
00E2 E300      02800         BNC     _90559_DS_
               02801 ; removed redundant BANKSEL
00E4 2B00      02802         INCF    (_DoShutdownPattern_column_1_1 + 1), F, B
00E6           02803 _90559_DS_:
00E6 D000      02804         BRA     _00474_DS_
00E8           02805 _00477_DS_:
               02806 ;       .line   716; main.c     MIOS_Delay(40);
00E8 0E28      02807         MOVLW   0x28
00EA EC00 F000 02808         CALL    _MIOS_Delay
gpasm-0.13.5 beta               _output/main__mios-gpasm-tmp.asm11-21-2009  19:30:07         PAGE 53


LOC  OBJECT CODE     LINE SOURCE TEXT
  VALUE
 
00EE 0000      02809         BANKSEL _DoShutdownPattern_row_1_1
               02810 ;       .line   706; main.c     for (row = 0; row < 8; row++)
00F0 2B00      02811         INCF    _DoShutdownPattern_row_1_1, F, B
00F2 E300      02812         BNC     _100560_DS_
               02813 ; removed redundant BANKSEL
00F4 2B00      02814         INCF    (_DoShutdownPattern_row_1_1 + 1), F, B
00F6           02815 _100560_DS_:
00F6 D000      02816         BRA     _00478_DS_
00F8           02817 _00481_DS_:
               02818 ;       .line   718; main.c     ClearMatrix(1);
00F8 0E00      02819         MOVLW   0x00
00FA 6EED      02820         MOVWF   POSTDEC1
00FC 0E01      02821         MOVLW   0x01
00FE EC00 F000 02822         CALL    _ClearMatrix
0102 2AE9      02823         INCF    FSR1L, F
               02824 ;       .line   719; main.c     ClearMatrix(2);
0104 0E00      02825         MOVLW   0x00
0106 6EED      02826         MOVWF   POSTDEC1
0108 0E02      02827         MOVLW   0x02
010A EC00 F000 02828         CALL    _ClearMatrix
010E 2AE9      02829         INCF    FSR1L, F
0110 CFEC F000 02830         MOVFF   PREINC1, r0x03
0114 CFEC F000 02831         MOVFF   PREINC1, r0x02
0118 CFEC F000 02832         MOVFF   PREINC1, r0x01
011C CFEC F000 02833         MOVFF   PREINC1, r0x00
0120 0012      02834         RETURN  
               02835 
               02836 ; ; Starting pCode block
               02837 S_main__DoStartupPattern        code
0000           02838 _DoStartupPattern:
               02839 ;       .line   636; main.c     void DoStartupPattern(void) __wparam
0000 C000 FFED 02840         MOVFF   r0x00, POSTDEC1
0004 C000 FFED 02841         MOVFF   r0x01, POSTDEC1
0008 C000 FFED 02842         MOVFF   r0x02, POSTDEC1
000C C000 FFED 02843         MOVFF   r0x03, POSTDEC1
               02844 ;       .line   641; main.c     ClearMatrix(1);
0010 0E00      02845         MOVLW   0x00
0012 6EED      02846         MOVWF   POSTDEC1
0014 0E01      02847         MOVLW   0x01
0016 EC00 F000 02848         CALL    _ClearMatrix
001A 2AE9      02849         INCF    FSR1L, F
               02850 ;       .line   642; main.c     ClearMatrix(2);
001C 0E00      02851         MOVLW   0x00
001E 6EED      02852         MOVWF   POSTDEC1
0020 0E02      02853         MOVLW   0x02
0022 EC00 F000 02854         CALL    _ClearMatrix
0026 2AE9      02855         INCF    FSR1L, F
               02856 ;       .line   643; main.c     for (row = 7; row > -1; row--)
0028 0E07      02857         MOVLW   0x07
002A 0000      02858         BANKSEL _DoStartupPattern_row_1_1
002C 6F00      02859         MOVWF   _DoStartupPattern_row_1_1, B
               02860 ; removed redundant BANKSEL
002E 6B00      02861         CLRF    (_DoStartupPattern_row_1_1 + 1), B
0030           02862 _00427_DS_:
gpasm-0.13.5 beta               _output/main__mios-gpasm-tmp.asm11-21-2009  19:30:07         PAGE 54


LOC  OBJECT CODE     LINE SOURCE TEXT
  VALUE
 
0030 90D8      02863         BCF     STATUS, 0
0032 0000      02864         BANKSEL (_DoStartupPattern_row_1_1 + 1)
0034 AF00      02865         BTFSS   (_DoStartupPattern_row_1_1 + 1), 7, B
0036 80D8      02866         BSF     STATUS, 0
0038 A0D8      02867         BTFSS   STATUS, 0
003A D000      02868         BRA     _00430_DS_
003C 0000      02869         BANKSEL _DoStartupPattern_column_1_1
               02870 ;       .line   645; main.c     for (column = 0; column < 8; column++)
003E 6B00      02871         CLRF    _DoStartupPattern_column_1_1, B
               02872 ; removed redundant BANKSEL
0040 6B00      02873         CLRF    (_DoStartupPattern_column_1_1 + 1), B
0042           02874 _00419_DS_:
0042 0E00      02875         MOVLW   0x00
0044 0000      02876         BANKSEL (_DoStartupPattern_column_1_1 + 1)
0046 5D00      02877         SUBWF   (_DoStartupPattern_column_1_1 + 1), W, B
0048 E100      02878         BNZ     _00459_DS_
004A 0E08      02879         MOVLW   0x08
               02880 ; removed redundant BANKSEL
004C 5D00      02881         SUBWF   _DoStartupPattern_column_1_1, W, B
004E           02882 _00459_DS_:
004E E200      02883         BC      _00422_DS_
0050 0000      02884         BANKSEL (_DoStartupPattern_row_1_1 + 1)
               02885 ;       .line   647; main.c     matrix_1[row][column] = _COLOR_WHITE;
0052 5100      02886         MOVF    (_DoStartupPattern_row_1_1 + 1), W, B
0054 6EED      02887         MOVWF   POSTDEC1
               02888 ; removed redundant BANKSEL
0056 5100      02889         MOVF    _DoStartupPattern_row_1_1, W, B
0058 6EED      02890         MOVWF   POSTDEC1
005A 0E00      02891         MOVLW   0x00
005C 6EED      02892         MOVWF   POSTDEC1
005E 0E08      02893         MOVLW   0x08
0060 6EED      02894         MOVWF   POSTDEC1
0062 EC00 F000 02895         CALL    __mulint
0066 6E00      02896         MOVWF   r0x00
0068 CFF3 F000 02897         MOVFF   PRODL, r0x01
006C 0E04      02898         MOVLW   0x04
006E 26E9      02899         ADDWF   FSR1L, F
0070 0E00      02900         MOVLW   LOW(_matrix_1)
0072 2600      02901         ADDWF   r0x00, F
0074 0E00      02902         MOVLW   HIGH(_matrix_1)
0076 2200      02903         ADDWFC  r0x01, F
0078 C000 F000 02904         MOVFF   _DoStartupPattern_column_1_1, r0x02
007C C000 F000 02905         MOVFF   (_DoStartupPattern_column_1_1 + 1), r0x03
0080 5000      02906         MOVF    r0x02, W
0082 2600      02907         ADDWF   r0x00, F
0084 5000      02908         MOVF    r0x03, W
0086 2200      02909         ADDWFC  r0x01, F
0088 C000 FFE1 02910         MOVFF   r0x00, FSR0L
008C C000 FFE2 02911         MOVFF   r0x01, FSR0H
0090 0E70      02912         MOVLW   0x70
0092 6EE7      02913         MOVWF   INDF0
0094 0000      02914         BANKSEL _DoStartupPattern_column_1_1
               02915 ;       .line   645; main.c     for (column = 0; column < 8; column++)
0096 2B00      02916         INCF    _DoStartupPattern_column_1_1, F, B
gpasm-0.13.5 beta               _output/main__mios-gpasm-tmp.asm11-21-2009  19:30:07         PAGE 55


LOC  OBJECT CODE     LINE SOURCE TEXT
  VALUE
 
0098 E300      02917         BNC     _110561_DS_
               02918 ; removed redundant BANKSEL
009A 2B00      02919         INCF    (_DoStartupPattern_column_1_1 + 1), F, B
009C           02920 _110561_DS_:
009C D000      02921         BRA     _00419_DS_
009E           02922 _00422_DS_:
009E 0000      02923         BANKSEL _DoStartupPattern_column_1_1
               02924 ;       .line   649; main.c     for (column = 0; column < 8; column++)
00A0 6B00      02925         CLRF    _DoStartupPattern_column_1_1, B
               02926 ; removed redundant BANKSEL
00A2 6B00      02927         CLRF    (_DoStartupPattern_column_1_1 + 1), B
00A4           02928 _00423_DS_:
00A4 0E00      02929         MOVLW   0x00
00A6 0000      02930         BANKSEL (_DoStartupPattern_column_1_1 + 1)
00A8 5D00      02931         SUBWF   (_DoStartupPattern_column_1_1 + 1), W, B
00AA E100      02932         BNZ     _00460_DS_
00AC 0E08      02933         MOVLW   0x08
               02934 ; removed redundant BANKSEL
00AE 5D00      02935         SUBWF   _DoStartupPattern_column_1_1, W, B
00B0           02936 _00460_DS_:
00B0 E200      02937         BC      _00426_DS_
00B2 0000      02938         BANKSEL _DoStartupPattern_row_1_1
               02939 ;       .line   651; main.c     matrix_1[row+1][column] = _COLOR_OFF;
00B4 5100      02940         MOVF    _DoStartupPattern_row_1_1, W, B
00B6 6E00      02941         MOVWF   r0x00
00B8 2A00      02942         INCF    r0x00, F
               02943 ; ;multiply lit val:0x08 by variable r0x00 and store in r0x00
               02944 ; ;Unrolled 8 X 8 multiplication
               02945 ; ;FIXME: the function does not support result==WREG
00BA 5000      02946         MOVF    r0x00, W
00BC 0D08      02947         MULLW   0x08
00BE CFF3 F000 02948         MOVFF   PRODL, r0x00
00C2 6A00      02949         CLRF    r0x01
00C4 BE00      02950         BTFSC   r0x00, 7
00C6 6800      02951         SETF    r0x01
00C8 0E00      02952         MOVLW   LOW(_matrix_1)
00CA 2600      02953         ADDWF   r0x00, F
00CC 0E00      02954         MOVLW   HIGH(_matrix_1)
00CE 2200      02955         ADDWFC  r0x01, F
00D0 C000 F000 02956         MOVFF   _DoStartupPattern_column_1_1, r0x02
00D4 C000 F000 02957         MOVFF   (_DoStartupPattern_column_1_1 + 1), r0x03
00D8 5000      02958         MOVF    r0x02, W
00DA 2600      02959         ADDWF   r0x00, F
00DC 5000      02960         MOVF    r0x03, W
00DE 2200      02961         ADDWFC  r0x01, F
00E0 C000 FFE1 02962         MOVFF   r0x00, FSR0L
00E4 C000 FFE2 02963         MOVFF   r0x01, FSR0H
00E8 0E00      02964         MOVLW   0x00
00EA 6EE7      02965         MOVWF   INDF0
00EC 0000      02966         BANKSEL _DoStartupPattern_column_1_1
               02967 ;       .line   649; main.c     for (column = 0; column < 8; column++)
00EE 2B00      02968         INCF    _DoStartupPattern_column_1_1, F, B
00F0 E300      02969         BNC     _120562_DS_
               02970 ; removed redundant BANKSEL
gpasm-0.13.5 beta               _output/main__mios-gpasm-tmp.asm11-21-2009  19:30:07         PAGE 56


LOC  OBJECT CODE     LINE SOURCE TEXT
  VALUE
 
00F2 2B00      02971         INCF    (_DoStartupPattern_column_1_1 + 1), F, B
00F4           02972 _120562_DS_:
00F4 D000      02973         BRA     _00423_DS_
00F6           02974 _00426_DS_:
               02975 ;       .line   653; main.c     MIOS_Delay(25);
00F6 0E19      02976         MOVLW   0x19
00F8 EC00 F000 02977         CALL    _MIOS_Delay
               02978 ;       .line   643; main.c     for (row = 7; row > -1; row--)
00FC 0EFF      02979         MOVLW   0xff
00FE 0000      02980         BANKSEL _DoStartupPattern_row_1_1
0100 2700      02981         ADDWF   _DoStartupPattern_row_1_1, F, B
0102 E200      02982         BC      _130563_DS_
               02983 ; removed redundant BANKSEL
0104 0700      02984         DECF    (_DoStartupPattern_row_1_1 + 1), F, B
0106           02985 _130563_DS_:
0106 D000      02986         BRA     _00427_DS_
0108           02987 _00430_DS_:
               02988 ;       .line   655; main.c     ClearMatrix(1);
0108 0E00      02989         MOVLW   0x00
010A 6EED      02990         MOVWF   POSTDEC1
010C 0E01      02991         MOVLW   0x01
010E EC00 F000 02992         CALL    _ClearMatrix
0112 2AE9      02993         INCF    FSR1L, F
               02994 ;       .line   656; main.c     ClearMatrix(2);
0114 0E00      02995         MOVLW   0x00
0116 6EED      02996         MOVWF   POSTDEC1
0118 0E02      02997         MOVLW   0x02
011A EC00 F000 02998         CALL    _ClearMatrix
011E 2AE9      02999         INCF    FSR1L, F
0120 0000      03000         BANKSEL _DoStartupPattern_row_1_1
               03001 ;       .line   657; main.c     for (row = 0; row < 6; row++)
0122 6B00      03002         CLRF    _DoStartupPattern_row_1_1, B
               03003 ; removed redundant BANKSEL
0124 6B00      03004         CLRF    (_DoStartupPattern_row_1_1 + 1), B
0126           03005 _00439_DS_:
0126 0000      03006         BANKSEL (_DoStartupPattern_row_1_1 + 1)
0128 5100      03007         MOVF    (_DoStartupPattern_row_1_1 + 1), W, B
012A 0F80      03008         ADDLW   0x80
012C 0F80      03009         ADDLW   0x80
012E E100      03010         BNZ     _00461_DS_
0130 0E06      03011         MOVLW   0x06
               03012 ; removed redundant BANKSEL
0132 5D00      03013         SUBWF   _DoStartupPattern_row_1_1, W, B
0134           03014 _00461_DS_:
0134 B0D8      03015         BTFSC   STATUS, 0
0136 D000      03016         BRA     _00442_DS_
               03017 ;       .line   659; main.c     switch (row)
0138 80D8      03018         BSF     STATUS, 0
013A 0000      03019         BANKSEL (_DoStartupPattern_row_1_1 + 1)
013C AF00      03020         BTFSS   (_DoStartupPattern_row_1_1 + 1), 7, B
013E 90D8      03021         BCF     STATUS, 0
0140 B0D8      03022         BTFSC   STATUS, 0
0142 D000      03023         BRA     _00417_DS_
               03024 ; removed redundant BANKSEL
gpasm-0.13.5 beta               _output/main__mios-gpasm-tmp.asm11-21-2009  19:30:07         PAGE 57


LOC  OBJECT CODE     LINE SOURCE TEXT
  VALUE
 
0144 5100      03025         MOVF    (_DoStartupPattern_row_1_1 + 1), W, B
0146 0F80      03026         ADDLW   0x80
0148 0F80      03027         ADDLW   0x80
014A E100      03028         BNZ     _00462_DS_
014C 0E06      03029         MOVLW   0x06
               03030 ; removed redundant BANKSEL
014E 5D00      03031         SUBWF   _DoStartupPattern_row_1_1, W, B
0150           03032 _00462_DS_:
0150 B0D8      03033         BTFSC   STATUS, 0
0152 D000      03034         BRA     _00417_DS_
0154 C000 FFED 03035         MOVFF   r0x04, POSTDEC1
0158 C000 FFED 03036         MOVFF   r0x05, POSTDEC1
015C 6A00      03037         CLRF    r0x05
015E 0000      03038         BANKSEL _DoStartupPattern_row_1_1
0160 3500      03039         RLCF    _DoStartupPattern_row_1_1, W, B
0162 3600      03040         RLCF    r0x05, F
0164 34E8      03041         RLCF    WREG, W
0166 3600      03042         RLCF    r0x05, F
0168 0BFC      03043         ANDLW   0xfc
016A 6E00      03044         MOVWF   r0x04
016C 0E00      03045         MOVLW   UPPER(_00463_DS_)
016E 6EFB      03046         MOVWF   PCLATU
0170 0E00      03047         MOVLW   HIGH(_00463_DS_)
0172 6EFA      03048         MOVWF   PCLATH
0174 0E00      03049         MOVLW   LOW(_00463_DS_)
0176 2600      03050         ADDWF   r0x04, F
0178 5000      03051         MOVF    r0x05, W
017A 22FA      03052         ADDWFC  PCLATH, F
017C B0D8      03053         BTFSC   STATUS, 0
017E 2AFB      03054         INCF    PCLATU, F
0180 5000      03055         MOVF    r0x04, W
0182 CFEC F000 03056         MOVFF   PREINC1, r0x05
0186 CFEC F000 03057         MOVFF   PREINC1, r0x04
018A 6EF9      03058         MOVWF   PCL
018C           03059 _00463_DS_:
018C EF00 F000 03060         GOTO    _00411_DS_
0190 EF00 F000 03061         GOTO    _00412_DS_
0194 EF00 F000 03062         GOTO    _00413_DS_
0198 EF00 F000 03063         GOTO    _00414_DS_
019C EF00 F000 03064         GOTO    _00415_DS_
01A0 EF00 F000 03065         GOTO    _00416_DS_
01A4           03066 _00411_DS_:
               03067 ;       .line   662; main.c     color = _COLOR_CYAN;
01A4 0E60      03068         MOVLW   0x60
01A6 0000      03069         BANKSEL _DoStartupPattern_color_1_1
01A8 6F00      03070         MOVWF   _DoStartupPattern_color_1_1, B
               03071 ;       .line   663; main.c     break;
01AA D000      03072         BRA     _00418_DS_
01AC           03073 _00412_DS_:
               03074 ;       .line   665; main.c     color = _COLOR_BLUE;
01AC 0E40      03075         MOVLW   0x40
01AE 0000      03076         BANKSEL _DoStartupPattern_color_1_1
01B0 6F00      03077         MOVWF   _DoStartupPattern_color_1_1, B
               03078 ;       .line   666; main.c     break;
gpasm-0.13.5 beta               _output/main__mios-gpasm-tmp.asm11-21-2009  19:30:07         PAGE 58


LOC  OBJECT CODE     LINE SOURCE TEXT
  VALUE
 
01B2 D000      03079         BRA     _00418_DS_
01B4           03080 _00413_DS_:
               03081 ;       .line   668; main.c     color = _COLOR_MAGENTA;
01B4 0E50      03082         MOVLW   0x50
01B6 0000      03083         BANKSEL _DoStartupPattern_color_1_1
01B8 6F00      03084         MOVWF   _DoStartupPattern_color_1_1, B
               03085 ;       .line   669; main.c     break;
01BA D000      03086         BRA     _00418_DS_
01BC           03087 _00414_DS_:
               03088 ;       .line   671; main.c     color = _COLOR_RED;
01BC 0E10      03089         MOVLW   0x10
01BE 0000      03090         BANKSEL _DoStartupPattern_color_1_1
01C0 6F00      03091         MOVWF   _DoStartupPattern_color_1_1, B
               03092 ;       .line   672; main.c     break;
01C2 D000      03093         BRA     _00418_DS_
01C4           03094 _00415_DS_:
               03095 ;       .line   674; main.c     color = _COLOR_YELLOW;
01C4 0E30      03096         MOVLW   0x30
01C6 0000      03097         BANKSEL _DoStartupPattern_color_1_1
01C8 6F00      03098         MOVWF   _DoStartupPattern_color_1_1, B
               03099 ;       .line   675; main.c     break;
01CA D000      03100         BRA     _00418_DS_
01CC           03101 _00416_DS_:
               03102 ;       .line   677; main.c     color = _COLOR_GREEN;
01CC 0E20      03103         MOVLW   0x20
01CE 0000      03104         BANKSEL _DoStartupPattern_color_1_1
01D0 6F00      03105         MOVWF   _DoStartupPattern_color_1_1, B
               03106 ;       .line   678; main.c     break;
01D2 D000      03107         BRA     _00418_DS_
01D4           03108 _00417_DS_:
01D4 0000      03109         BANKSEL _DoStartupPattern_color_1_1
               03110 ;       .line   681; main.c     color = _COLOR_OFF;
01D6 6B00      03111         CLRF    _DoStartupPattern_color_1_1, B
01D8           03112 _00418_DS_:
01D8 0000      03113         BANKSEL _DoStartupPattern_column_1_1
               03114 ;       .line   684; main.c     for (column = 0; column < 8; column++)
01DA 6B00      03115         CLRF    _DoStartupPattern_column_1_1, B
               03116 ; removed redundant BANKSEL
01DC 6B00      03117         CLRF    (_DoStartupPattern_column_1_1 + 1), B
01DE           03118 _00431_DS_:
01DE 0E00      03119         MOVLW   0x00
01E0 0000      03120         BANKSEL (_DoStartupPattern_column_1_1 + 1)
01E2 5D00      03121         SUBWF   (_DoStartupPattern_column_1_1 + 1), W, B
01E4 E100      03122         BNZ     _00464_DS_
01E6 0E08      03123         MOVLW   0x08
               03124 ; removed redundant BANKSEL
01E8 5D00      03125         SUBWF   _DoStartupPattern_column_1_1, W, B
01EA           03126 _00464_DS_:
01EA E200      03127         BC      _00434_DS_
               03128 ;       .line   686; main.c     matrix_2[row/2][column] = color;
01EC 0E00      03129         MOVLW   0x00
01EE 6EED      03130         MOVWF   POSTDEC1
01F0 0E02      03131         MOVLW   0x02
01F2 6EED      03132         MOVWF   POSTDEC1
gpasm-0.13.5 beta               _output/main__mios-gpasm-tmp.asm11-21-2009  19:30:07         PAGE 59


LOC  OBJECT CODE     LINE SOURCE TEXT
  VALUE
 
01F4 0000      03133         BANKSEL (_DoStartupPattern_row_1_1 + 1)
01F6 5100      03134         MOVF    (_DoStartupPattern_row_1_1 + 1), W, B
01F8 6EED      03135         MOVWF   POSTDEC1
               03136 ; removed redundant BANKSEL
01FA 5100      03137         MOVF    _DoStartupPattern_row_1_1, W, B
01FC 6EED      03138         MOVWF   POSTDEC1
01FE EC00 F000 03139         CALL    __divsint
0202 6E00      03140         MOVWF   r0x00
0204 CFF3 F000 03141         MOVFF   PRODL, r0x01
0208 0E04      03142         MOVLW   0x04
020A 26E9      03143         ADDWF   FSR1L, F
020C 5000      03144         MOVF    r0x01, W
020E 6EED      03145         MOVWF   POSTDEC1
0210 5000      03146         MOVF    r0x00, W
0212 6EED      03147         MOVWF   POSTDEC1
0214 0E00      03148         MOVLW   0x00
0216 6EED      03149         MOVWF   POSTDEC1
0218 0E08      03150         MOVLW   0x08
021A 6EED      03151         MOVWF   POSTDEC1
021C EC00 F000 03152         CALL    __mulint
0220 6E00      03153         MOVWF   r0x00
0222 CFF3 F000 03154         MOVFF   PRODL, r0x01
0226 0E04      03155         MOVLW   0x04
0228 26E9      03156         ADDWF   FSR1L, F
022A 0E00      03157         MOVLW   LOW(_matrix_2)
022C 2600      03158         ADDWF   r0x00, F
022E 0E00      03159         MOVLW   HIGH(_matrix_2)
0230 2200      03160         ADDWFC  r0x01, F
0232 C000 F000 03161         MOVFF   _DoStartupPattern_column_1_1, r0x02
0236 C000 F000 03162         MOVFF   (_DoStartupPattern_column_1_1 + 1), r0x03
023A 5000      03163         MOVF    r0x02, W
023C 2600      03164         ADDWF   r0x00, F
023E 5000      03165         MOVF    r0x03, W
0240 2200      03166         ADDWFC  r0x01, F
0242 C000 FFE1 03167         MOVFF   r0x00, FSR0L
0246 C000 FFE2 03168         MOVFF   r0x01, FSR0H
024A C000 FFE7 03169         MOVFF   _DoStartupPattern_color_1_1, INDF0
024E 0000      03170         BANKSEL _DoStartupPattern_column_1_1
               03171 ;       .line   684; main.c     for (column = 0; column < 8; column++)
0250 2B00      03172         INCF    _DoStartupPattern_column_1_1, F, B
0252 E300      03173         BNC     _140564_DS_
               03174 ; removed redundant BANKSEL
0254 2B00      03175         INCF    (_DoStartupPattern_column_1_1 + 1), F, B
0256           03176 _140564_DS_:
0256 D000      03177         BRA     _00431_DS_
0258           03178 _00434_DS_:
0258 0000      03179         BANKSEL _DoStartupPattern_column_1_1
               03180 ;       .line   688; main.c     for (column = 0; column < 8; column++)
025A 6B00      03181         CLRF    _DoStartupPattern_column_1_1, B
               03182 ; removed redundant BANKSEL
025C 6B00      03183         CLRF    (_DoStartupPattern_column_1_1 + 1), B
025E           03184 _00435_DS_:
025E 0E00      03185         MOVLW   0x00
0260 0000      03186         BANKSEL (_DoStartupPattern_column_1_1 + 1)
gpasm-0.13.5 beta               _output/main__mios-gpasm-tmp.asm11-21-2009  19:30:07         PAGE 60


LOC  OBJECT CODE     LINE SOURCE TEXT
  VALUE
 
0262 5D00      03187         SUBWF   (_DoStartupPattern_column_1_1 + 1), W, B
0264 E100      03188         BNZ     _00465_DS_
0266 0E08      03189         MOVLW   0x08
               03190 ; removed redundant BANKSEL
0268 5D00      03191         SUBWF   _DoStartupPattern_column_1_1, W, B
026A           03192 _00465_DS_:
026A E200      03193         BC      _00438_DS_
               03194 ;       .line   690; main.c     matrix_2[(row/2)-1][column] = _COLOR_OFF;
026C 0E00      03195         MOVLW   0x00
026E 6EED      03196         MOVWF   POSTDEC1
0270 0E02      03197         MOVLW   0x02
0272 6EED      03198         MOVWF   POSTDEC1
0274 0000      03199         BANKSEL (_DoStartupPattern_row_1_1 + 1)
0276 5100      03200         MOVF    (_DoStartupPattern_row_1_1 + 1), W, B
0278 6EED      03201         MOVWF   POSTDEC1
               03202 ; removed redundant BANKSEL
027A 5100      03203         MOVF    _DoStartupPattern_row_1_1, W, B
027C 6EED      03204         MOVWF   POSTDEC1
027E EC00 F000 03205         CALL    __divsint
0282 6E00      03206         MOVWF   r0x00
0284 CFF3 F000 03207         MOVFF   PRODL, r0x01
0288 0E04      03208         MOVLW   0x04
028A 26E9      03209         ADDWF   FSR1L, F
028C 0600      03210         DECF    r0x00, F
               03211 ; ;multiply lit val:0x08 by variable r0x00 and store in r0x00
               03212 ; ;Unrolled 8 X 8 multiplication
               03213 ; ;FIXME: the function does not support result==WREG
028E 5000      03214         MOVF    r0x00, W
0290 0D08      03215         MULLW   0x08
0292 CFF3 F000 03216         MOVFF   PRODL, r0x00
0296 6A00      03217         CLRF    r0x01
0298 BE00      03218         BTFSC   r0x00, 7
029A 6800      03219         SETF    r0x01
029C 0E00      03220         MOVLW   LOW(_matrix_2)
029E 2600      03221         ADDWF   r0x00, F
02A0 0E00      03222         MOVLW   HIGH(_matrix_2)
02A2 2200      03223         ADDWFC  r0x01, F
02A4 C000 F000 03224         MOVFF   _DoStartupPattern_column_1_1, r0x02
02A8 C000 F000 03225         MOVFF   (_DoStartupPattern_column_1_1 + 1), r0x03
02AC 5000      03226         MOVF    r0x02, W
02AE 2600      03227         ADDWF   r0x00, F
02B0 5000      03228         MOVF    r0x03, W
02B2 2200      03229         ADDWFC  r0x01, F
02B4 C000 FFE1 03230         MOVFF   r0x00, FSR0L
02B8 C000 FFE2 03231         MOVFF   r0x01, FSR0H
02BC 0E00      03232         MOVLW   0x00
02BE 6EE7      03233         MOVWF   INDF0
02C0 0000      03234         BANKSEL _DoStartupPattern_column_1_1
               03235 ;       .line   688; main.c     for (column = 0; column < 8; column++)
02C2 2B00      03236         INCF    _DoStartupPattern_column_1_1, F, B
02C4 E300      03237         BNC     _150565_DS_
               03238 ; removed redundant BANKSEL
02C6 2B00      03239         INCF    (_DoStartupPattern_column_1_1 + 1), F, B
02C8           03240 _150565_DS_:
gpasm-0.13.5 beta               _output/main__mios-gpasm-tmp.asm11-21-2009  19:30:07         PAGE 61


LOC  OBJECT CODE     LINE SOURCE TEXT
  VALUE
 
02C8 D000      03241         BRA     _00435_DS_
02CA           03242 _00438_DS_:
               03243 ;       .line   692; main.c     MIOS_Delay(150);
02CA 0E96      03244         MOVLW   0x96
02CC EC00 F000 03245         CALL    _MIOS_Delay
02D0 0000      03246         BANKSEL _DoStartupPattern_row_1_1
               03247 ;       .line   657; main.c     for (row = 0; row < 6; row++)
02D2 2B00      03248         INCF    _DoStartupPattern_row_1_1, F, B
02D4 E300      03249         BNC     _160566_DS_
               03250 ; removed redundant BANKSEL
02D6 2B00      03251         INCF    (_DoStartupPattern_row_1_1 + 1), F, B
02D8           03252 _160566_DS_:
02D8 D000      03253         BRA     _00439_DS_
02DA           03254 _00442_DS_:
               03255 ;       .line   694; main.c     ClearMatrix(1);
02DA 0E00      03256         MOVLW   0x00
02DC 6EED      03257         MOVWF   POSTDEC1
02DE 0E01      03258         MOVLW   0x01
02E0 EC00 F000 03259         CALL    _ClearMatrix
02E4 2AE9      03260         INCF    FSR1L, F
               03261 ;       .line   695; main.c     ClearMatrix(2);
02E6 0E00      03262         MOVLW   0x00
02E8 6EED      03263         MOVWF   POSTDEC1
02EA 0E02      03264         MOVLW   0x02
02EC EC00 F000 03265         CALL    _ClearMatrix
02F0 2AE9      03266         INCF    FSR1L, F
02F2 CFEC F000 03267         MOVFF   PREINC1, r0x03
02F6 CFEC F000 03268         MOVFF   PREINC1, r0x02
02FA CFEC F000 03269         MOVFF   PREINC1, r0x01
02FE CFEC F000 03270         MOVFF   PREINC1, r0x00
0302 0012      03271         RETURN  
               03272 
               03273 ; ; Starting pCode block
               03274 S_main__ClearMatrix     code
0000           03275 _ClearMatrix:
               03276 ;       .line   584; main.c     void ClearMatrix(unsigned int matrixIndex) __wparam
0000 CFD9 FFED 03277         MOVFF   FSR2L, POSTDEC1
0004 CFE9 FFD9 03278         MOVFF   FSR1L, FSR2L
0008 C000 FFED 03279         MOVFF   r0x00, POSTDEC1
000C C000 FFED 03280         MOVFF   r0x01, POSTDEC1
0010 C000 FFED 03281         MOVFF   r0x02, POSTDEC1
0014 C000 FFED 03282         MOVFF   r0x03, POSTDEC1
0018 C000 FFED 03283         MOVFF   r0x04, POSTDEC1
001C C000 FFED 03284         MOVFF   r0x05, POSTDEC1
0020 C000 FFED 03285         MOVFF   r0x06, POSTDEC1
0024 C000 FFED 03286         MOVFF   r0x07, POSTDEC1
0028 C000 FFED 03287         MOVFF   r0x08, POSTDEC1
002C C000 FFED 03288         MOVFF   r0x09, POSTDEC1
0030 6E00      03289         MOVWF   r0x00
0032 0E02      03290         MOVLW   0x02
0034 CFDB F000 03291         MOVFF   PLUSW2, r0x01
               03292 ;       .line   588; main.c     switch (matrixIndex)
0038 5000      03293         MOVF    r0x00, W
003A 0A01      03294         XORLW   0x01
gpasm-0.13.5 beta               _output/main__mios-gpasm-tmp.asm11-21-2009  19:30:07         PAGE 62


LOC  OBJECT CODE     LINE SOURCE TEXT
  VALUE
 
003C E100      03295         BNZ     _00400_DS_
003E 5000      03296         MOVF    r0x01, W
0040 E000      03297         BZ      _00390_DS_
0042           03298 _00400_DS_:
0042 5000      03299         MOVF    r0x00, W
0044 0A02      03300         XORLW   0x02
0046 E100      03301         BNZ     _00402_DS_
0048 5000      03302         MOVF    r0x01, W
004A E000      03303         BZ      _00394_DS_
004C           03304 _00402_DS_:
004C D000      03305         BRA     _00383_DS_
004E           03306 _00390_DS_:
               03307 ;       .line   591; main.c     for (row = 0; row < 8; row++)
004E 6A00      03308         CLRF    r0x00
0050 6A00      03309         CLRF    r0x01
0052 6A00      03310         CLRF    r0x02
0054 6A00      03311         CLRF    r0x03
0056           03312 _00371_DS_:
0056 0E00      03313         MOVLW   0x00
0058 5C00      03314         SUBWF   r0x01, W
005A E100      03315         BNZ     _00403_DS_
005C 0E08      03316         MOVLW   0x08
005E 5C00      03317         SUBWF   r0x00, W
0060           03318 _00403_DS_:
0060 E200      03319         BC      _00374_DS_
               03320 ;       .line   593; main.c     for (column = 0; column < 8; column++)
0062 0E00      03321         MOVLW   LOW(_matrix_1)
0064 2400      03322         ADDWF   r0x02, W
0066 6E00      03323         MOVWF   r0x04
0068 0E00      03324         MOVLW   HIGH(_matrix_1)
006A 2000      03325         ADDWFC  r0x03, W
006C 6E00      03326         MOVWF   r0x05
006E 6A00      03327         CLRF    r0x06
0070 6A00      03328         CLRF    r0x07
0072           03329 _00367_DS_:
0072 0E00      03330         MOVLW   0x00
0074 5C00      03331         SUBWF   r0x07, W
0076 E100      03332         BNZ     _00404_DS_
0078 0E08      03333         MOVLW   0x08
007A 5C00      03334         SUBWF   r0x06, W
007C           03335 _00404_DS_:
007C E200      03336         BC      _00373_DS_
               03337 ;       .line   595; main.c     matrix_1[row][column] = _COLOR_OFF;
007E 5000      03338         MOVF    r0x06, W
0080 2400      03339         ADDWF   r0x04, W
0082 6E00      03340         MOVWF   r0x08
0084 5000      03341         MOVF    r0x07, W
0086 2000      03342         ADDWFC  r0x05, W
0088 6E00      03343         MOVWF   r0x09
008A C000 FFE1 03344         MOVFF   r0x08, FSR0L
008E C000 FFE2 03345         MOVFF   r0x09, FSR0H
0092 0E00      03346         MOVLW   0x00
0094 6EE7      03347         MOVWF   INDF0
               03348 ;       .line   593; main.c     for (column = 0; column < 8; column++)
gpasm-0.13.5 beta               _output/main__mios-gpasm-tmp.asm11-21-2009  19:30:07         PAGE 63


LOC  OBJECT CODE     LINE SOURCE TEXT
  VALUE
 
0096 2A00      03349         INCF    r0x06, F
0098 B0D8      03350         BTFSC   STATUS, 0
009A 2A00      03351         INCF    r0x07, F
009C D000      03352         BRA     _00367_DS_
009E           03353 _00373_DS_:
               03354 ;       .line   591; main.c     for (row = 0; row < 8; row++)
009E 0E08      03355         MOVLW   0x08
00A0 2600      03356         ADDWF   r0x02, F
00A2 B0D8      03357         BTFSC   STATUS, 0
00A4 2A00      03358         INCF    r0x03, F
00A6 2A00      03359         INCF    r0x00, F
00A8 B0D8      03360         BTFSC   STATUS, 0
00AA 2A00      03361         INCF    r0x01, F
00AC D000      03362         BRA     _00371_DS_
00AE           03363 _00374_DS_:
               03364 ;       .line   598; main.c     MIOS_DOUT_SRSet(_MATRIX_1_DOUT_START, 0);
00AE 0E00      03365         MOVLW   0x00
00B0 6EED      03366         MOVWF   POSTDEC1
00B2 0E00      03367         MOVLW   0x00
00B4 EC00 F000 03368         CALL    _MIOS_DOUT_SRSet
00B8 2AE9      03369         INCF    FSR1L, F
               03370 ;       .line   599; main.c     break;
00BA D000      03371         BRA     _00383_DS_
00BC           03372 _00394_DS_:
               03373 ;       .line   602; main.c     for (row = 0; row < 8; row++)
00BC 6A00      03374         CLRF    r0x00
00BE 6A00      03375         CLRF    r0x01
00C0 6A00      03376         CLRF    r0x02
00C2 6A00      03377         CLRF    r0x03
00C4           03378 _00379_DS_:
00C4 0E00      03379         MOVLW   0x00
00C6 5C00      03380         SUBWF   r0x01, W
00C8 E100      03381         BNZ     _00405_DS_
00CA 0E08      03382         MOVLW   0x08
00CC 5C00      03383         SUBWF   r0x00, W
00CE           03384 _00405_DS_:
00CE E200      03385         BC      _00382_DS_
               03386 ;       .line   604; main.c     for (column = 0; column < 8; column++)
00D0 0E00      03387         MOVLW   LOW(_matrix_2)
00D2 2400      03388         ADDWF   r0x02, W
00D4 6E00      03389         MOVWF   r0x04
00D6 0E00      03390         MOVLW   HIGH(_matrix_2)
00D8 2000      03391         ADDWFC  r0x03, W
00DA 6E00      03392         MOVWF   r0x05
00DC 6A00      03393         CLRF    r0x06
00DE 6A00      03394         CLRF    r0x07
00E0           03395 _00375_DS_:
00E0 0E00      03396         MOVLW   0x00
00E2 5C00      03397         SUBWF   r0x07, W
00E4 E100      03398         BNZ     _00406_DS_
00E6 0E08      03399         MOVLW   0x08
00E8 5C00      03400         SUBWF   r0x06, W
00EA           03401 _00406_DS_:
00EA E200      03402         BC      _00381_DS_
gpasm-0.13.5 beta               _output/main__mios-gpasm-tmp.asm11-21-2009  19:30:07         PAGE 64


LOC  OBJECT CODE     LINE SOURCE TEXT
  VALUE
 
               03403 ;       .line   606; main.c     matrix_2[row][column] = _COLOR_OFF;
00EC 5000      03404         MOVF    r0x06, W
00EE 2400      03405         ADDWF   r0x04, W
00F0 6E00      03406         MOVWF   r0x08
00F2 5000      03407         MOVF    r0x07, W
00F4 2000      03408         ADDWFC  r0x05, W
00F6 6E00      03409         MOVWF   r0x09
00F8 C000 FFE1 03410         MOVFF   r0x08, FSR0L
00FC C000 FFE2 03411         MOVFF   r0x09, FSR0H
0100 0E00      03412         MOVLW   0x00
0102 6EE7      03413         MOVWF   INDF0
               03414 ;       .line   604; main.c     for (column = 0; column < 8; column++)
0104 2A00      03415         INCF    r0x06, F
0106 B0D8      03416         BTFSC   STATUS, 0
0108 2A00      03417         INCF    r0x07, F
010A D000      03418         BRA     _00375_DS_
010C           03419 _00381_DS_:
               03420 ;       .line   602; main.c     for (row = 0; row < 8; row++)
010C 0E08      03421         MOVLW   0x08
010E 2600      03422         ADDWF   r0x02, F
0110 B0D8      03423         BTFSC   STATUS, 0
0112 2A00      03424         INCF    r0x03, F
0114 2A00      03425         INCF    r0x00, F
0116 B0D8      03426         BTFSC   STATUS, 0
0118 2A00      03427         INCF    r0x01, F
011A D000      03428         BRA     _00379_DS_
011C           03429 _00382_DS_:
               03430 ;       .line   609; main.c     MIOS_DOUT_SRSet(_MATRIX_2_DOUT_START, 0);
011C 0E00      03431         MOVLW   0x00
011E 6EED      03432         MOVWF   POSTDEC1
0120 0E04      03433         MOVLW   0x04
0122 EC00 F000 03434         CALL    _MIOS_DOUT_SRSet
0126 2AE9      03435         INCF    FSR1L, F
0128           03436 _00383_DS_:
               03437 ;       .line   614; main.c     }
0128 CFEC F000 03438         MOVFF   PREINC1, r0x09
012C CFEC F000 03439         MOVFF   PREINC1, r0x08
0130 CFEC F000 03440         MOVFF   PREINC1, r0x07
0134 CFEC F000 03441         MOVFF   PREINC1, r0x06
0138 CFEC F000 03442         MOVFF   PREINC1, r0x05
013C CFEC F000 03443         MOVFF   PREINC1, r0x04
0140 CFEC F000 03444         MOVFF   PREINC1, r0x03
0144 CFEC F000 03445         MOVFF   PREINC1, r0x02
0148 CFEC F000 03446         MOVFF   PREINC1, r0x01
014C CFEC F000 03447         MOVFF   PREINC1, r0x00
0150 CFEC FFD9 03448         MOVFF   PREINC1, FSR2L
0154 0012      03449         RETURN  
               03450 
               03451 ; ; Starting pCode block
               03452 S_main__AIN_NotifyChange        code
0000           03453 _AIN_NotifyChange:
               03454 ;       .line   554; main.c     void AIN_NotifyChange(unsigned char pin, unsigned int pin_value) __wparam
0000 CFD9 FFED 03455         MOVFF   FSR2L, POSTDEC1
0004 CFE9 FFD9 03456         MOVFF   FSR1L, FSR2L
gpasm-0.13.5 beta               _output/main__mios-gpasm-tmp.asm11-21-2009  19:30:07         PAGE 65


LOC  OBJECT CODE     LINE SOURCE TEXT
  VALUE
 
0008 C000 FFED 03457         MOVFF   r0x00, POSTDEC1
000C C000 FFED 03458         MOVFF   r0x01, POSTDEC1
0010 C000 FFED 03459         MOVFF   r0x02, POSTDEC1
0014 C000 FFED 03460         MOVFF   r0x03, POSTDEC1
0018 C000 FFED 03461         MOVFF   r0x04, POSTDEC1
001C 6E00      03462         MOVWF   r0x00
               03463 ;       .line   556; main.c     MIOS_MIDI_BeginStream();
001E EC00 F000 03464         CALL    _MIOS_MIDI_BeginStream
               03465 ; ;multiply lit val:0x02 by variable r0x00 and store in r0x01
               03466 ; ;Unrolled 8 X 8 multiplication
               03467 ; ;FIXME: the function does not support result==WREG
               03468 ;       .line   557; main.c     MIOS_MIDI_TxBufferPut(pot_event_map[pin][0]); // first value from table
0022 90D8      03469         BCF     STATUS, 0
0024 3400      03470         RLCF    r0x00, W
0026 6E00      03471         MOVWF   r0x01
0028 0E00      03472         MOVLW   LOW(_pot_event_map)
002A 2400      03473         ADDWF   r0x01, W
002C 6E00      03474         MOVWF   r0x02
002E 6A00      03475         CLRF    r0x03
0030 0E00      03476         MOVLW   HIGH(_pot_event_map)
0032 2200      03477         ADDWFC  r0x03, F
0034 6A00      03478         CLRF    r0x04
0036 0E00      03479         MOVLW   UPPER(_pot_event_map)
0038 2200      03480         ADDWFC  r0x04, F
003A C000 FFF6 03481         MOVFF   r0x02, TBLPTRL
003E C000 FFF7 03482         MOVFF   r0x03, TBLPTRH
0042 C000 FFF8 03483         MOVFF   r0x04, TBLPTRU
0046 0009      03484         TBLRD*+ 
0048 CFF5 F000 03485         MOVFF   TABLAT, r0x02
004C 5000      03486         MOVF    r0x02, W
004E EC00 F000 03487         CALL    _MIOS_MIDI_TxBufferPut
               03488 ;       .line   558; main.c     MIOS_MIDI_TxBufferPut(pot_event_map[pin][1]); // second value from table
0052 6A00      03489         CLRF    r0x02
0054 6A00      03490         CLRF    r0x03
0056 0E00      03491         MOVLW   LOW(_pot_event_map)
0058 2600      03492         ADDWF   r0x01, F
005A 0E00      03493         MOVLW   HIGH(_pot_event_map)
005C 2200      03494         ADDWFC  r0x02, F
005E 0E00      03495         MOVLW   UPPER(_pot_event_map)
0060 2200      03496         ADDWFC  r0x03, F
0062 2A00      03497         INCF    r0x01, F
0064 B0D8      03498         BTFSC   STATUS, 0
0066 2A00      03499         INCF    r0x02, F
0068 B0D8      03500         BTFSC   STATUS, 0
006A 2A00      03501         INCF    r0x03, F
006C C000 FFF6 03502         MOVFF   r0x01, TBLPTRL
0070 C000 FFF7 03503         MOVFF   r0x02, TBLPTRH
0074 C000 FFF8 03504         MOVFF   r0x03, TBLPTRU
0078 0009      03505         TBLRD*+ 
007A CFF5 F000 03506         MOVFF   TABLAT, r0x01
007E 5000      03507         MOVF    r0x01, W
0080 EC00 F000 03508         CALL    _MIOS_MIDI_TxBufferPut
               03509 ;       .line   559; main.c     MIOS_MIDI_TxBufferPut(MIOS_AIN_Pin7bitGet(pin)); // 7bit pot value
0084 5000      03510         MOVF    r0x00, W
gpasm-0.13.5 beta               _output/main__mios-gpasm-tmp.asm11-21-2009  19:30:07         PAGE 66


LOC  OBJECT CODE     LINE SOURCE TEXT
  VALUE
 
0086 EC00 F000 03511         CALL    _MIOS_AIN_Pin7bitGet
008A 6E00      03512         MOVWF   r0x01
008C 5000      03513         MOVF    r0x01, W
008E EC00 F000 03514         CALL    _MIOS_MIDI_TxBufferPut
               03515 ;       .line   560; main.c     MIOS_MIDI_EndStream();
0092 EC00 F000 03516         CALL    _MIOS_MIDI_EndStream
               03517 ;       .line   563; main.c     last_ain_pin = pin;
0096 C000 F000 03518         MOVFF   r0x00, _last_ain_pin
009A 0000      03519         BANKSEL _app_flags
               03520 ;       .line   564; main.c     app_flags.DISPLAY_UPDATE_REQ = 1;
009C 8100      03521         BSF     _app_flags, 0, B
009E CFEC F000 03522         MOVFF   PREINC1, r0x04
00A2 CFEC F000 03523         MOVFF   PREINC1, r0x03
00A6 CFEC F000 03524         MOVFF   PREINC1, r0x02
00AA CFEC F000 03525         MOVFF   PREINC1, r0x01
00AE CFEC F000 03526         MOVFF   PREINC1, r0x00
00B2 CFEC FFD9 03527         MOVFF   PREINC1, FSR2L
00B6 0012      03528         RETURN  
               03529 
               03530 ; ; Starting pCode block
               03531 S_main__ENC_NotifyChange        code
0000           03532 _ENC_NotifyChange:
               03533 ;       .line   547; main.c     void ENC_NotifyChange(unsigned char encoder, char incrementer) __wparam
0000 CFD9 FFED 03534         MOVFF   FSR2L, POSTDEC1
0004 CFE9 FFD9 03535         MOVFF   FSR1L, FSR2L
               03536 ;       .line   549; main.c     }
0008 CFEC FFD9 03537         MOVFF   PREINC1, FSR2L
000C 0012      03538         RETURN  
               03539 
               03540 ; ; Starting pCode block
               03541 S_main__DIN_NotifyToggle        code
0000           03542 _DIN_NotifyToggle:
               03543 ;       .line   495; main.c     void DIN_NotifyToggle(unsigned char pin, unsigned char pin_value) __wparam
0000 CFD9 FFED 03544         MOVFF   FSR2L, POSTDEC1
0004 CFE9 FFD9 03545         MOVFF   FSR1L, FSR2L
0008 C000 FFED 03546         MOVFF   r0x00, POSTDEC1
000C C000 FFED 03547         MOVFF   r0x01, POSTDEC1
0010 C000 FFED 03548         MOVFF   r0x02, POSTDEC1
0014 C000 FFED 03549         MOVFF   r0x03, POSTDEC1
0018 C000 FFED 03550         MOVFF   r0x04, POSTDEC1
001C C000 FFED 03551         MOVFF   r0x05, POSTDEC1
0020 6E00      03552         MOVWF   r0x00
0022 0E02      03553         MOVLW   0x02
0024 CFDB F000 03554         MOVFF   PLUSW2, r0x01
               03555 ; ;multiply lit val:0x02 by variable r0x00 and store in r0x02
               03556 ; ;Unrolled 8 X 8 multiplication
               03557 ; ;FIXME: the function does not support result==WREG
               03558 ;       .line   499; main.c     channel = button_event_map[pin][0];
0028 90D8      03559         BCF     STATUS, 0
002A 3400      03560         RLCF    r0x00, W
002C 6E00      03561         MOVWF   r0x02
002E 6A00      03562         CLRF    r0x03
0030 6A00      03563         CLRF    r0x04
0032 0E00      03564         MOVLW   LOW(_button_event_map)
gpasm-0.13.5 beta               _output/main__mios-gpasm-tmp.asm11-21-2009  19:30:07         PAGE 67


LOC  OBJECT CODE     LINE SOURCE TEXT
  VALUE
 
0034 2600      03565         ADDWF   r0x02, F
0036 0E00      03566         MOVLW   HIGH(_button_event_map)
0038 2200      03567         ADDWFC  r0x03, F
003A 0E00      03568         MOVLW   UPPER(_button_event_map)
003C 2200      03569         ADDWFC  r0x04, F
003E C000 FFF6 03570         MOVFF   r0x02, TBLPTRL
0042 C000 FFF7 03571         MOVFF   r0x03, TBLPTRH
0046 C000 FFF8 03572         MOVFF   r0x04, TBLPTRU
004A 0009      03573         TBLRD*+ 
004C CFF5 F000 03574         MOVFF   TABLAT, r0x05
               03575 ;       .line   500; main.c     note = button_event_map[pin][1];
0050 2A00      03576         INCF    r0x02, F
0052 B0D8      03577         BTFSC   STATUS, 0
0054 2A00      03578         INCF    r0x03, F
0056 B0D8      03579         BTFSC   STATUS, 0
0058 2A00      03580         INCF    r0x04, F
005A C000 FFF6 03581         MOVFF   r0x02, TBLPTRL
005E C000 FFF7 03582         MOVFF   r0x03, TBLPTRH
0062 C000 FFF8 03583         MOVFF   r0x04, TBLPTRU
0066 0009      03584         TBLRD*+ 
0068 CFF5 F000 03585         MOVFF   TABLAT, r0x02
               03586 ;       .line   502; main.c     MIOS_MIDI_BeginStream();
006C EC00 F000 03587         CALL    _MIOS_MIDI_BeginStream
               03588 ;       .line   503; main.c     MIOS_MIDI_TxBufferPut(channel); // first value from table
0070 5000      03589         MOVF    r0x05, W
0072 EC00 F000 03590         CALL    _MIOS_MIDI_TxBufferPut
               03591 ;       .line   504; main.c     MIOS_MIDI_TxBufferPut(note); // second value from table
0076 5000      03592         MOVF    r0x02, W
0078 EC00 F000 03593         CALL    _MIOS_MIDI_TxBufferPut
               03594 ;       .line   505; main.c     MIOS_MIDI_TxBufferPut(pin_value ? 0x00 : 0x7f); // 7bit pot value
007C 5000      03595         MOVF    r0x01, W
007E E000      03596         BZ      _00330_DS_
0080 6A00      03597         CLRF    r0x02
0082 D000      03598         BRA     _00331_DS_
0084           03599 _00330_DS_:
0084 0E7F      03600         MOVLW   0x7f
0086 6E00      03601         MOVWF   r0x02
0088           03602 _00331_DS_:
0088 5000      03603         MOVF    r0x02, W
008A EC00 F000 03604         CALL    _MIOS_MIDI_TxBufferPut
               03605 ;       .line   506; main.c     MIOS_MIDI_EndStream();
008E EC00 F000 03606         CALL    _MIOS_MIDI_EndStream
0092 0000      03607         BANKSEL _test_mode
               03608 ;       .line   508; main.c     if (test_mode == 1 && pin_value == 0)
0094 5100      03609         MOVF    _test_mode, W, B
0096 0A01      03610         XORLW   0x01
0098 E100      03611         BNZ     _00340_DS_
               03612 ; removed redundant BANKSEL
009A 5100      03613         MOVF    (_test_mode + 1), W, B
009C E000      03614         BZ      _00341_DS_
009E           03615 _00340_DS_:
009E D000      03616         BRA     _00326_DS_
00A0           03617 _00341_DS_:
00A0 5000      03618         MOVF    r0x01, W
gpasm-0.13.5 beta               _output/main__mios-gpasm-tmp.asm11-21-2009  19:30:07         PAGE 68


LOC  OBJECT CODE     LINE SOURCE TEXT
  VALUE
 
00A2 E100      03619         BNZ     _00326_DS_
               03620 ;       .line   510; main.c     switch (pin)
00A4 5000      03621         MOVF    r0x00, W
00A6 0A10      03622         XORLW   0x10
00A8 E000      03623         BZ      _00318_DS_
00AA 5000      03624         MOVF    r0x00, W
00AC 0A11      03625         XORLW   0x11
00AE E000      03626         BZ      _00319_DS_
00B0 5000      03627         MOVF    r0x00, W
00B2 0A12      03628         XORLW   0x12
00B4 E000      03629         BZ      _00320_DS_
00B6 5000      03630         MOVF    r0x00, W
00B8 0A13      03631         XORLW   0x13
00BA E000      03632         BZ      _00321_DS_
00BC 5000      03633         MOVF    r0x00, W
00BE 0A17      03634         XORLW   0x17
00C0 E000      03635         BZ      _00322_DS_
00C2 D000      03636         BRA     _00326_DS_
00C4           03637 _00318_DS_:
               03638 ;       .line   513; main.c     DoStartupPattern();
00C4 EC00 F000 03639         CALL    _DoStartupPattern
               03640 ;       .line   514; main.c     break;
00C8 D000      03641         BRA     _00326_DS_
00CA           03642 _00319_DS_:
               03643 ;       .line   517; main.c     DoShutdownPattern();
00CA EC00 F000 03644         CALL    _DoShutdownPattern
               03645 ;       .line   518; main.c     break;
00CE D000      03646         BRA     _00326_DS_
00D0           03647 _00320_DS_:
               03648 ;       .line   521; main.c     TestMatrix1();
00D0 EC00 F000 03649         CALL    _TestMatrix1
               03650 ;       .line   522; main.c     break;
00D4 D000      03651         BRA     _00326_DS_
00D6           03652 _00321_DS_:
               03653 ;       .line   525; main.c     TestMatrix2();
00D6 EC00 F000 03654         CALL    _TestMatrix2
               03655 ;       .line   526; main.c     break;
00DA D000      03656         BRA     _00326_DS_
00DC           03657 _00322_DS_:
               03658 ;       .line   529; main.c     DoMichaelKnightPattern();
00DC EC00 F000 03659         CALL    _DoMichaelKnightPattern
00E0           03660 _00326_DS_:
               03661 ;       .line   538; main.c     last_din_pin = pin;
00E0 C000 F000 03662         MOVFF   r0x00, _last_din_pin
00E4 0000      03663         BANKSEL _app_flags
               03664 ;       .line   539; main.c     app_flags.DISPLAY_UPDATE_REQ = 1;
00E6 8100      03665         BSF     _app_flags, 0, B
00E8 CFEC F000 03666         MOVFF   PREINC1, r0x05
00EC CFEC F000 03667         MOVFF   PREINC1, r0x04
00F0 CFEC F000 03668         MOVFF   PREINC1, r0x03
00F4 CFEC F000 03669         MOVFF   PREINC1, r0x02
00F8 CFEC F000 03670         MOVFF   PREINC1, r0x01
00FC CFEC F000 03671         MOVFF   PREINC1, r0x00
0100 CFEC FFD9 03672         MOVFF   PREINC1, FSR2L
gpasm-0.13.5 beta               _output/main__mios-gpasm-tmp.asm11-21-2009  19:30:07         PAGE 69


LOC  OBJECT CODE     LINE SOURCE TEXT
  VALUE
 
0104 0012      03673         RETURN  
               03674 
               03675 ; ; Starting pCode block
               03676 S_main__SR_Service_Finish       code
0000           03677 _SR_Service_Finish:
               03678 ;       .line   489; main.c     }
0000 0012      03679         RETURN  
               03680 
               03681 ; ; Starting pCode block
               03682 S_main__SR_Service_Prepare      code
0000           03683 _SR_Service_Prepare:
               03684 ;       .line   463; main.c     void SR_Service_Prepare(void) __wparam
0000 C000 FFED 03685         MOVFF   r0x00, POSTDEC1
0004 C000 FFED 03686         MOVFF   r0x01, POSTDEC1
0008 C000 FFED 03687         MOVFF   r0x02, POSTDEC1
000C C000 FFED 03688         MOVFF   r0x03, POSTDEC1
0010 C000 FFED 03689         MOVFF   r0x04, POSTDEC1
0014 0000      03690         BANKSEL _SR_Service_Prepare_row_1_1
               03691 ;       .line   468; main.c     row = ++row & 0x07;                                             //<-- here you were cycling 16 rows i think you meant 8, no?  
0016 2B00      03692         INCF    _SR_Service_Prepare_row_1_1, F, B
0018 0E07      03693         MOVLW   0x07
               03694 ; removed redundant BANKSEL
001A 1700      03695         ANDWF   _SR_Service_Prepare_row_1_1, F, B
               03696 ;       .line   471; main.c     MIOS_DOUT_SRSet(_MATRIX_1_DOUT_START, 0);       //<-- hardwire bad, napster good.  define constants 
001C 0E00      03697         MOVLW   0x00
001E 6EED      03698         MOVWF   POSTDEC1
0020 0E00      03699         MOVLW   0x00
0022 EC00 F000 03700         CALL    _MIOS_DOUT_SRSet
0026 2AE9      03701         INCF    FSR1L, F
               03702 ;       .line   472; main.c     MIOS_DOUT_SRSet(_MATRIX_2_DOUT_START, 0);       //    so you can move your matrix in the chain
0028 0E00      03703         MOVLW   0x00
002A 6EED      03704         MOVWF   POSTDEC1
002C 0E04      03705         MOVLW   0x04
002E EC00 F000 03706         CALL    _MIOS_DOUT_SRSet
0032 2AE9      03707         INCF    FSR1L, F
0034 0000      03708         BANKSEL _SR_Service_Prepare_row_1_1
               03709 ;       .line   474; main.c     MIOS_DOUT_PinSet1(row + (_MATRIX_1_DOUT_START * 8));
0036 5100      03710         MOVF    _SR_Service_Prepare_row_1_1, W, B
0038 EC00 F000 03711         CALL    _MIOS_DOUT_PinSet1
               03712 ;       .line   475; main.c     MIOS_DOUT_PinSet1(row + (_MATRIX_2_DOUT_START * 8));
003C 0E20      03713         MOVLW   0x20
003E 0000      03714         BANKSEL _SR_Service_Prepare_row_1_1
0040 2500      03715         ADDWF   _SR_Service_Prepare_row_1_1, W, B
0042 6E00      03716         MOVWF   r0x00
0044 5000      03717         MOVF    r0x00, W
0046 EC00 F000 03718         CALL    _MIOS_DOUT_PinSet1
               03719 ;       .line   476; main.c     for (x = 0; x < 8; x++)
004A 6A00      03720         CLRF    r0x00
004C 6A00      03721         CLRF    r0x01
004E           03722 _00299_DS_:
004E 0E00      03723         MOVLW   0x00
0050 5C00      03724         SUBWF   r0x01, W
0052 E100      03725         BNZ     _00309_DS_
0054 0E08      03726         MOVLW   0x08
gpasm-0.13.5 beta               _output/main__mios-gpasm-tmp.asm11-21-2009  19:30:07         PAGE 70


LOC  OBJECT CODE     LINE SOURCE TEXT
  VALUE
 
0056 5C00      03727         SUBWF   r0x00, W
0058           03728 _00309_DS_:
0058 B0D8      03729         BTFSC   STATUS, 0
005A D000      03730         BRA     _00303_DS_
               03731 ;       .line   478; main.c     DisplayLED(x + (_MATRIX_1_DOUT_START * 8), matrix_1[row][x]);
005C 5000      03732         MOVF    r0x00, W
005E 6E00      03733         MOVWF   r0x02
               03734 ; ;multiply lit val:0x08 by variable _SR_Service_Prepare_row_1_1 and store in r0x03
               03735 ; ;Unrolled 8 X 8 multiplication
               03736 ; ;FIXME: the function does not support result==WREG
0060 0000      03737         BANKSEL _SR_Service_Prepare_row_1_1
0062 5100      03738         MOVF    _SR_Service_Prepare_row_1_1, W, B
0064 0D08      03739         MULLW   0x08
0066 CFF3 F000 03740         MOVFF   PRODL, r0x03
006A 6A00      03741         CLRF    r0x04
006C 0E00      03742         MOVLW   LOW(_matrix_1)
006E 2600      03743         ADDWF   r0x03, F
0070 0E00      03744         MOVLW   HIGH(_matrix_1)
0072 2200      03745         ADDWFC  r0x04, F
0074 5000      03746         MOVF    r0x00, W
0076 2600      03747         ADDWF   r0x03, F
0078 5000      03748         MOVF    r0x01, W
007A 2200      03749         ADDWFC  r0x04, F
007C C000 FFE1 03750         MOVFF   r0x03, FSR0L
0080 C000 FFE2 03751         MOVFF   r0x04, FSR0H
0084 CFE7 F000 03752         MOVFF   INDF0, r0x03
0088 5000      03753         MOVF    r0x03, W
008A 6EED      03754         MOVWF   POSTDEC1
008C 5000      03755         MOVF    r0x02, W
008E EC00 F000 03756         CALL    _DisplayLED
0092 2AE9      03757         INCF    FSR1L, F
               03758 ;       .line   479; main.c     DisplayLED(x + (_MATRIX_2_DOUT_START * 8), matrix_2[row][x]);
0094 0E20      03759         MOVLW   0x20
0096 2600      03760         ADDWF   r0x02, F
               03761 ; ;multiply lit val:0x08 by variable _SR_Service_Prepare_row_1_1 and store in r0x03
               03762 ; ;Unrolled 8 X 8 multiplication
               03763 ; ;FIXME: the function does not support result==WREG
0098 0000      03764         BANKSEL _SR_Service_Prepare_row_1_1
009A 5100      03765         MOVF    _SR_Service_Prepare_row_1_1, W, B
009C 0D08      03766         MULLW   0x08
009E CFF3 F000 03767         MOVFF   PRODL, r0x03
00A2 6A00      03768         CLRF    r0x04
00A4 0E00      03769         MOVLW   LOW(_matrix_2)
00A6 2600      03770         ADDWF   r0x03, F
00A8 0E00      03771         MOVLW   HIGH(_matrix_2)
00AA 2200      03772         ADDWFC  r0x04, F
00AC 5000      03773         MOVF    r0x00, W
00AE 2600      03774         ADDWF   r0x03, F
00B0 5000      03775         MOVF    r0x01, W
00B2 2200      03776         ADDWFC  r0x04, F
00B4 C000 FFE1 03777         MOVFF   r0x03, FSR0L
00B8 C000 FFE2 03778         MOVFF   r0x04, FSR0H
00BC CFE7 F000 03779         MOVFF   INDF0, r0x03
00C0 5000      03780         MOVF    r0x03, W
gpasm-0.13.5 beta               _output/main__mios-gpasm-tmp.asm11-21-2009  19:30:07         PAGE 71


LOC  OBJECT CODE     LINE SOURCE TEXT
  VALUE
 
00C2 6EED      03781         MOVWF   POSTDEC1
00C4 5000      03782         MOVF    r0x02, W
00C6 EC00 F000 03783         CALL    _DisplayLED
00CA 2AE9      03784         INCF    FSR1L, F
               03785 ;       .line   476; main.c     for (x = 0; x < 8; x++)
00CC 2A00      03786         INCF    r0x00, F
00CE B0D8      03787         BTFSC   STATUS, 0
00D0 2A00      03788         INCF    r0x01, F
00D2 D000      03789         BRA     _00299_DS_
00D4           03790 _00303_DS_:
00D4 CFEC F000 03791         MOVFF   PREINC1, r0x04
00D8 CFEC F000 03792         MOVFF   PREINC1, r0x03
00DC CFEC F000 03793         MOVFF   PREINC1, r0x02
00E0 CFEC F000 03794         MOVFF   PREINC1, r0x01
00E4 CFEC F000 03795         MOVFF   PREINC1, r0x00
00E8 0012      03796         RETURN  
               03797 
               03798 ; ; Starting pCode block
               03799 S_main__DisplayLED      code
0000           03800 _DisplayLED:
               03801 ;       .line   447; main.c     void DisplayLED(unsigned char column, unsigned char color) __wparam
0000 CFD9 FFED 03802         MOVFF   FSR2L, POSTDEC1
0004 CFE9 FFD9 03803         MOVFF   FSR1L, FSR2L
0008 C000 FFED 03804         MOVFF   r0x00, POSTDEC1
000C C000 FFED 03805         MOVFF   r0x01, POSTDEC1
0010 C000 FFED 03806         MOVFF   r0x02, POSTDEC1
0014 C000 FFED 03807         MOVFF   r0x03, POSTDEC1
0018 6E00      03808         MOVWF   r0x00
001A 0E02      03809         MOVLW   0x02
001C CFDB F000 03810         MOVFF   PLUSW2, r0x01
               03811 ;       .line   449; main.c     color >>= 4; 
0020 3800      03812         SWAPF   r0x01, W
0022 0B0F      03813         ANDLW   0x0f
0024 6E00      03814         MOVWF   r0x01
               03815 ;       .line   450; main.c     MIOS_DOUT_PinSet(column+8,              (color & 0x01)); 
0026 0E08      03816         MOVLW   0x08
0028 2400      03817         ADDWF   r0x00, W
002A 6E00      03818         MOVWF   r0x02
002C 0E01      03819         MOVLW   0x01
002E 1400      03820         ANDWF   r0x01, W
0030 6E00      03821         MOVWF   r0x03
0032 5000      03822         MOVF    r0x03, W
0034 6EED      03823         MOVWF   POSTDEC1
0036 5000      03824         MOVF    r0x02, W
0038 EC00 F000 03825         CALL    _MIOS_DOUT_PinSet
003C 2AE9      03826         INCF    FSR1L, F
               03827 ;       .line   451; main.c     color >>= 1; 
003E 90D8      03828         BCF     STATUS, 0
0040 3200      03829         RRCF    r0x01, F
               03830 ;       .line   452; main.c     MIOS_DOUT_PinSet(column+8+8,    (color & 0x01));
0042 0E10      03831         MOVLW   0x10
0044 2400      03832         ADDWF   r0x00, W
0046 6E00      03833         MOVWF   r0x02
0048 0E01      03834         MOVLW   0x01
gpasm-0.13.5 beta               _output/main__mios-gpasm-tmp.asm11-21-2009  19:30:07         PAGE 72


LOC  OBJECT CODE     LINE SOURCE TEXT
  VALUE
 
004A 1400      03835         ANDWF   r0x01, W
004C 6E00      03836         MOVWF   r0x03
004E 5000      03837         MOVF    r0x03, W
0050 6EED      03838         MOVWF   POSTDEC1
0052 5000      03839         MOVF    r0x02, W
0054 EC00 F000 03840         CALL    _MIOS_DOUT_PinSet
0058 2AE9      03841         INCF    FSR1L, F
               03842 ;       .line   453; main.c     color >>= 1; 
005A 90D8      03843         BCF     STATUS, 0
005C 3200      03844         RRCF    r0x01, F
               03845 ;       .line   454; main.c     MIOS_DOUT_PinSet(column+8+16,   (color & 0x01));
005E 0E18      03846         MOVLW   0x18
0060 2600      03847         ADDWF   r0x00, F
0062 0E01      03848         MOVLW   0x01
0064 1600      03849         ANDWF   r0x01, F
0066 5000      03850         MOVF    r0x01, W
0068 6EED      03851         MOVWF   POSTDEC1
006A 5000      03852         MOVF    r0x00, W
006C EC00 F000 03853         CALL    _MIOS_DOUT_PinSet
0070 2AE9      03854         INCF    FSR1L, F
0072 CFEC F000 03855         MOVFF   PREINC1, r0x03
0076 CFEC F000 03856         MOVFF   PREINC1, r0x02
007A CFEC F000 03857         MOVFF   PREINC1, r0x01
007E CFEC F000 03858         MOVFF   PREINC1, r0x00
0082 CFEC FFD9 03859         MOVFF   PREINC1, FSR2L
0086 0012      03860         RETURN  
               03861 
               03862 ; ; Starting pCode block
               03863 S_main__MPROC_NotifyReceivedByte        code
0000           03864 _MPROC_NotifyReceivedByte:
               03865 ;       .line   356; main.c     void MPROC_NotifyReceivedByte(unsigned char byte) __wparam
0000 CFD9 FFED 03866         MOVFF   FSR2L, POSTDEC1
0004 CFE9 FFD9 03867         MOVFF   FSR1L, FSR2L
0008 C000 FFED 03868         MOVFF   r0x00, POSTDEC1
000C C000 FFED 03869         MOVFF   r0x01, POSTDEC1
0010 C000 FFED 03870         MOVFF   r0x02, POSTDEC1
0014 6E00      03871         MOVWF   r0x00
               03872 ;       .line   358; main.c     switch (byte)
0016 5000      03873         MOVF    r0x00, W
0018 0A77      03874         XORLW   0x77
001A E000      03875         BZ      _00219_DS_
001C 5000      03876         MOVF    r0x00, W
001E 0AF0      03877         XORLW   0xf0
0020 E000      03878         BZ      _00217_DS_
0022 5000      03879         MOVF    r0x00, W
0024 0AF7      03880         XORLW   0xf7
0026 E000      03881         BZ      _00218_DS_
0028 5000      03882         MOVF    r0x00, W
002A 0AF8      03883         XORLW   0xf8
002C E100      03884         BNZ     _00273_DS_
002E D000      03885         BRA     _00230_DS_
0030           03886 _00273_DS_:
0030 5000      03887         MOVF    r0x00, W
0032 0AFA      03888         XORLW   0xfa
gpasm-0.13.5 beta               _output/main__mios-gpasm-tmp.asm11-21-2009  19:30:07         PAGE 73


LOC  OBJECT CODE     LINE SOURCE TEXT
  VALUE
 
0034 E000      03889         BZ      _00229_DS_
0036 5000      03890         MOVF    r0x00, W
0038 0AFB      03891         XORLW   0xfb
003A E000      03892         BZ      _00229_DS_
003C 5000      03893         MOVF    r0x00, W
003E 0AFC      03894         XORLW   0xfc
0040 E000      03895         BZ      _00229_DS_
0042 D000      03896         BRA     _00244_DS_
0044           03897 _00217_DS_:
               03898 ;       .line   361; main.c     record_sysex = 1;
0044 0E01      03899         MOVLW   0x01
0046 0000      03900         BANKSEL _record_sysex
0048 6F00      03901         MOVWF   _record_sysex, B
               03902 ; removed redundant BANKSEL
004A 6B00      03903         CLRF    (_record_sysex + 1), B
               03904 ;       .line   362; main.c     break;
004C D000      03905         BRA     _00248_DS_
004E           03906 _00218_DS_:
004E 0000      03907         BANKSEL _record_sysex
               03908 ;       .line   365; main.c     record_sysex = 0;
0050 6B00      03909         CLRF    _record_sysex, B
               03910 ; removed redundant BANKSEL
0052 6B00      03911         CLRF    (_record_sysex + 1), B
               03912 ;       .line   366; main.c     break;
0054 D000      03913         BRA     _00248_DS_
0056           03914 _00219_DS_:
0056 0000      03915         BANKSEL _record_sysex
               03916 ;       .line   369; main.c     if (record_sysex == 1)
0058 5100      03917         MOVF    _record_sysex, W, B
005A 0A01      03918         XORLW   0x01
005C E100      03919         BNZ     _00280_DS_
               03920 ; removed redundant BANKSEL
005E 5100      03921         MOVF    (_record_sysex + 1), W, B
0060 E000      03922         BZ      _00281_DS_
0062           03923 _00280_DS_:
0062 D000      03924         BRA     _00248_DS_
0064           03925 _00281_DS_:
0064 0000      03926         BANKSEL _last_sysex
               03927 ;       .line   371; main.c     if (last_sysex == 0x01)         // connect
0066 5100      03928         MOVF    _last_sysex, W, B
0068 0A01      03929         XORLW   0x01
006A E100      03930         BNZ     _00223_DS_
               03931 ;       .line   373; main.c     DoMichaelKnightPattern();
006C EC00 F000 03932         CALL    _DoMichaelKnightPattern
0070 0000      03933         BANKSEL _test_mode
               03934 ;       .line   374; main.c     test_mode = 0;
0072 6B00      03935         CLRF    _test_mode, B
               03936 ; removed redundant BANKSEL
0074 6B00      03937         CLRF    (_test_mode + 1), B
0076 D000      03938         BRA     _00248_DS_
0078           03939 _00223_DS_:
0078 0000      03940         BANKSEL _last_sysex
               03941 ;       .line   376; main.c     else if (last_sysex == 0x02)    // disconnect
007A 5100      03942         MOVF    _last_sysex, W, B
gpasm-0.13.5 beta               _output/main__mios-gpasm-tmp.asm11-21-2009  19:30:07         PAGE 74


LOC  OBJECT CODE     LINE SOURCE TEXT
  VALUE
 
007C 0A02      03943         XORLW   0x02
007E E000      03944         BZ      _00285_DS_
0080 D000      03945         BRA     _00248_DS_
0082           03946 _00285_DS_:
               03947 ;       .line   378; main.c     DoShutdownPattern();
0082 EC00 F000 03948         CALL    _DoShutdownPattern
               03949 ;       .line   379; main.c     test_mode = 1;
0086 0E01      03950         MOVLW   0x01
0088 0000      03951         BANKSEL _test_mode
008A 6F00      03952         MOVWF   _test_mode, B
               03953 ; removed redundant BANKSEL
008C 6B00      03954         CLRF    (_test_mode + 1), B
               03955 ;       .line   382; main.c     break;
008E D000      03956         BRA     _00248_DS_
0090           03957 _00229_DS_:
0090 0000      03958         BANKSEL _clock_ticks
               03959 ;       .line   387; main.c     clock_ticks = 0;
0092 6B00      03960         CLRF    _clock_ticks, B
               03961 ; removed redundant BANKSEL
0094 6B00      03962         CLRF    (_clock_ticks + 1), B
0096 0000      03963         BANKSEL _clock_beats
               03964 ;       .line   388; main.c     clock_beats = 0;
0098 6B00      03965         CLRF    _clock_beats, B
               03966 ; removed redundant BANKSEL
009A 6B00      03967         CLRF    (_clock_beats + 1), B
009C 0000      03968         BANKSEL _clock_bars
               03969 ;       .line   389; main.c     clock_bars = 0;
009E 6B00      03970         CLRF    _clock_bars, B
               03971 ; removed redundant BANKSEL
00A0 6B00      03972         CLRF    (_clock_bars + 1), B
00A2 0000      03973         BANKSEL (_matrix_2 + 53)
               03974 ;       .line   390; main.c     matrix_2[6][5] = _COLOR_OFF;
00A4 6B00      03975         CLRF    (_matrix_2 + 53), B
               03976 ;       .line   391; main.c     break;
00A6 D000      03977         BRA     _00248_DS_
00A8           03978 _00230_DS_:
00A8 0000      03979         BANKSEL _clock_ticks
               03980 ;       .line   394; main.c     clock_ticks++;
00AA 2B00      03981         INCF    _clock_ticks, F, B
00AC E300      03982         BNC     _170567_DS_
               03983 ; removed redundant BANKSEL
00AE 2B00      03984         INCF    (_clock_ticks + 1), F, B
00B0           03985 _170567_DS_:
               03986 ;       .line   395; main.c     if (clock_ticks % 24 == 0)
00B0 0E00      03987         MOVLW   0x00
00B2 6EED      03988         MOVWF   POSTDEC1
00B4 0E18      03989         MOVLW   0x18
00B6 6EED      03990         MOVWF   POSTDEC1
00B8 0000      03991         BANKSEL (_clock_ticks + 1)
00BA 5100      03992         MOVF    (_clock_ticks + 1), W, B
00BC 6EED      03993         MOVWF   POSTDEC1
               03994 ; removed redundant BANKSEL
00BE 5100      03995         MOVF    _clock_ticks, W, B
00C0 6EED      03996         MOVWF   POSTDEC1
gpasm-0.13.5 beta               _output/main__mios-gpasm-tmp.asm11-21-2009  19:30:07         PAGE 75


LOC  OBJECT CODE     LINE SOURCE TEXT
  VALUE
 
00C2 EC00 F000 03997         CALL    __moduint
00C6 6E00      03998         MOVWF   r0x01
00C8 CFF3 F000 03999         MOVFF   PRODL, r0x02
00CC 0E04      04000         MOVLW   0x04
00CE 26E9      04001         ADDWF   FSR1L, F
00D0 5000      04002         MOVF    r0x01, W
00D2 1000      04003         IORWF   r0x02, W
00D4 A4D8      04004         BTFSS   STATUS, 2
00D6 D000      04005         BRA     _00234_DS_
00D8 0000      04006         BANKSEL _clock_beats
               04007 ;       .line   397; main.c     clock_beats++;
00DA 2B00      04008         INCF    _clock_beats, F, B
00DC E300      04009         BNC     _180568_DS_
               04010 ; removed redundant BANKSEL
00DE 2B00      04011         INCF    (_clock_beats + 1), F, B
00E0           04012 _180568_DS_:
00E0 0000      04013         BANKSEL _clock_beats
               04014 ;       .line   398; main.c     if (clock_beats % 4 == 0)
00E2 5100      04015         MOVF    _clock_beats, W, B
00E4 0B03      04016         ANDLW   0x03
00E6 E100      04017         BNZ     _00232_DS_
00E8 0000      04018         BANKSEL _clock_bars
               04019 ;       .line   400; main.c     clock_bars++;
00EA 2B00      04020         INCF    _clock_bars, F, B
00EC E300      04021         BNC     _190569_DS_
               04022 ; removed redundant BANKSEL
00EE 2B00      04023         INCF    (_clock_bars + 1), F, B
00F0           04024 _190569_DS_:
00F0 0000      04025         BANKSEL _clock_beats
               04026 ;       .line   401; main.c     clock_beats = 0;
00F2 6B00      04027         CLRF    _clock_beats, B
               04028 ; removed redundant BANKSEL
00F4 6B00      04029         CLRF    (_clock_beats + 1), B
00F6           04030 _00232_DS_:
               04031 ;       .line   403; main.c     MIOS_LCD_Clear();
00F6 EC00 F000 04032         CALL    _MIOS_LCD_Clear
               04033 ;       .line   404; main.c     MIOS_LCD_CursorSet(0x00 + 0); 
00FA 0E00      04034         MOVLW   0x00
00FC EC00 F000 04035         CALL    _MIOS_LCD_CursorSet
0100 0000      04036         BANKSEL (_clock_bars + 1)
               04037 ;       .line   405; main.c     MIOS_LCD_PrintBCD4(clock_bars);
0102 5100      04038         MOVF    (_clock_bars + 1), W, B
0104 6EED      04039         MOVWF   POSTDEC1
               04040 ; removed redundant BANKSEL
0106 5100      04041         MOVF    _clock_bars, W, B
0108 EC00 F000 04042         CALL    _MIOS_LCD_PrintBCD4
010C 2AE9      04043         INCF    FSR1L, F
               04044 ;       .line   406; main.c     MIOS_LCD_CursorSet(0x00 + 4);
010E 0E04      04045         MOVLW   0x04
0110 EC00 F000 04046         CALL    _MIOS_LCD_CursorSet
0114 0000      04047         BANKSEL (_clock_beats + 1)
               04048 ;       .line   407; main.c     MIOS_LCD_PrintBCD4(clock_beats);
0116 5100      04049         MOVF    (_clock_beats + 1), W, B
0118 6EED      04050         MOVWF   POSTDEC1
gpasm-0.13.5 beta               _output/main__mios-gpasm-tmp.asm11-21-2009  19:30:07         PAGE 76


LOC  OBJECT CODE     LINE SOURCE TEXT
  VALUE
 
               04051 ; removed redundant BANKSEL
011A 5100      04052         MOVF    _clock_beats, W, B
011C EC00 F000 04053         CALL    _MIOS_LCD_PrintBCD4
0120 2AE9      04054         INCF    FSR1L, F
               04055 ;       .line   408; main.c     MIOS_LCD_CursorSet(0x00 + 8);
0122 0E08      04056         MOVLW   0x08
0124 EC00 F000 04057         CALL    _MIOS_LCD_CursorSet
0128 0000      04058         BANKSEL (_clock_ticks + 1)
               04059 ;       .line   409; main.c     MIOS_LCD_PrintBCD4(clock_ticks);
012A 5100      04060         MOVF    (_clock_ticks + 1), W, B
012C 6EED      04061         MOVWF   POSTDEC1
               04062 ; removed redundant BANKSEL
012E 5100      04063         MOVF    _clock_ticks, W, B
0130 EC00 F000 04064         CALL    _MIOS_LCD_PrintBCD4
0134 2AE9      04065         INCF    FSR1L, F
0136 0000      04066         BANKSEL _app_flags
               04067 ;       .line   410; main.c     app_flags.DISPLAY_UPDATE_REQ = 1;
0138 8100      04068         BSF     _app_flags, 0, B
013A 0000      04069         BANKSEL _clock_ticks
               04070 ;       .line   411; main.c     clock_ticks = 0;
013C 6B00      04071         CLRF    _clock_ticks, B
               04072 ; removed redundant BANKSEL
013E 6B00      04073         CLRF    (_clock_ticks + 1), B
0140           04074 _00234_DS_:
               04075 ;       .line   413; main.c     if (clock_ticks < 12)
0140 0E00      04076         MOVLW   0x00
0142 0000      04077         BANKSEL (_clock_ticks + 1)
0144 5D00      04078         SUBWF   (_clock_ticks + 1), W, B
0146 E100      04079         BNZ     _00287_DS_
0148 0E0C      04080         MOVLW   0x0c
               04081 ; removed redundant BANKSEL
014A 5D00      04082         SUBWF   _clock_ticks, W, B
014C           04083 _00287_DS_:
014C E200      04084         BC      _00242_DS_
014E 0000      04085         BANKSEL _clock_beats
               04086 ;       .line   415; main.c     if (clock_beats == 0)
0150 5100      04087         MOVF    _clock_beats, W, B
               04088 ; removed redundant BANKSEL
0152 1100      04089         IORWF   (_clock_beats + 1), W, B
0154 E100      04090         BNZ     _00239_DS_
0156 0000      04091         BANKSEL _clock_bars
               04092 ;       .line   417; main.c     if (clock_bars % 4 == 0)
0158 5100      04093         MOVF    _clock_bars, W, B
015A 0B03      04094         ANDLW   0x03
015C E100      04095         BNZ     _00236_DS_
               04096 ;       .line   419; main.c     matrix_2[6][5] = _COLOR_WHITE;
015E 0E70      04097         MOVLW   0x70
0160 0000      04098         BANKSEL (_matrix_2 + 53)
0162 6F00      04099         MOVWF   (_matrix_2 + 53), B
0164 D000      04100         BRA     _00248_DS_
0166           04101 _00236_DS_:
               04102 ;       .line   423; main.c     matrix_2[6][5] = _COLOR_GREEN;
0166 0E20      04103         MOVLW   0x20
0168 0000      04104         BANKSEL (_matrix_2 + 53)
gpasm-0.13.5 beta               _output/main__mios-gpasm-tmp.asm11-21-2009  19:30:07         PAGE 77


LOC  OBJECT CODE     LINE SOURCE TEXT
  VALUE
 
016A 6F00      04105         MOVWF   (_matrix_2 + 53), B
016C D000      04106         BRA     _00248_DS_
016E           04107 _00239_DS_:
               04108 ;       .line   428; main.c     matrix_2[6][5] = _COLOR_BLUE;
016E 0E40      04109         MOVLW   0x40
0170 0000      04110         BANKSEL (_matrix_2 + 53)
0172 6F00      04111         MOVWF   (_matrix_2 + 53), B
0174 D000      04112         BRA     _00248_DS_
0176           04113 _00242_DS_:
0176 0000      04114         BANKSEL (_matrix_2 + 53)
               04115 ;       .line   433; main.c     matrix_2[6][5] = _COLOR_OFF;
0178 6B00      04116         CLRF    (_matrix_2 + 53), B
               04117 ;       .line   435; main.c     break;
017A D000      04118         BRA     _00248_DS_
017C           04119 _00244_DS_:
017C 0000      04120         BANKSEL _record_sysex
               04121 ;       .line   438; main.c     if (record_sysex == 1)
017E 5100      04122         MOVF    _record_sysex, W, B
0180 0A01      04123         XORLW   0x01
0182 E100      04124         BNZ     _00289_DS_
               04125 ; removed redundant BANKSEL
0184 5100      04126         MOVF    (_record_sysex + 1), W, B
0186 E000      04127         BZ      _00290_DS_
0188           04128 _00289_DS_:
0188 D000      04129         BRA     _00248_DS_
018A           04130 _00290_DS_:
               04131 ;       .line   440; main.c     last_sysex = byte;
018A C000 F000 04132         MOVFF   r0x00, _last_sysex
018E           04133 _00248_DS_:
               04134 ;       .line   443; main.c     }
018E CFEC F000 04135         MOVFF   PREINC1, r0x02
0192 CFEC F000 04136         MOVFF   PREINC1, r0x01
0196 CFEC F000 04137         MOVFF   PREINC1, r0x00
019A CFEC FFD9 04138         MOVFF   PREINC1, FSR2L
019E 0012      04139         RETURN  
               04140 
               04141 ; ; Starting pCode block
               04142 S_main__MPROC_NotifyTimeout     code
0000           04143 _MPROC_NotifyTimeout:
               04144 ;       .line   351; main.c     }
0000 0012      04145         RETURN  
               04146 
               04147 ; ; Starting pCode block
               04148 S_main__MPROC_NotifyFoundEvent  code
0000           04149 _MPROC_NotifyFoundEvent:
               04150 ;       .line   341; main.c     void MPROC_NotifyFoundEvent(unsigned entry, unsigned char evnt0, unsigned char evnt1, unsigned char evnt2) __wparam
0000 CFD9 FFED 04151         MOVFF   FSR2L, POSTDEC1
0004 CFE9 FFD9 04152         MOVFF   FSR1L, FSR2L
               04153 ;       .line   343; main.c     }
0008 CFEC FFD9 04154         MOVFF   PREINC1, FSR2L
000C 0012      04155         RETURN  
               04156 
               04157 ; ; Starting pCode block
               04158 S_main__MPROC_NotifyReceivedEvnt        code
gpasm-0.13.5 beta               _output/main__mios-gpasm-tmp.asm11-21-2009  19:30:07         PAGE 78


LOC  OBJECT CODE     LINE SOURCE TEXT
  VALUE
 
0000           04159 _MPROC_NotifyReceivedEvnt:
               04160 ;       .line   271; main.c     void MPROC_NotifyReceivedEvnt(unsigned char evnt0, unsigned char evnt1, unsigned char evnt2) __wparam
0000 CFD9 FFED 04161         MOVFF   FSR2L, POSTDEC1
0004 CFE9 FFD9 04162         MOVFF   FSR1L, FSR2L
0008 C000 FFED 04163         MOVFF   r0x00, POSTDEC1
000C C000 FFED 04164         MOVFF   r0x01, POSTDEC1
0010 C000 FFED 04165         MOVFF   r0x02, POSTDEC1
0014 C000 FFED 04166         MOVFF   r0x03, POSTDEC1
0018 C000 FFED 04167         MOVFF   r0x04, POSTDEC1
001C C000 FFED 04168         MOVFF   r0x05, POSTDEC1
0020 C000 FFED 04169         MOVFF   r0x06, POSTDEC1
0024 C000 FFED 04170         MOVFF   r0x07, POSTDEC1
0028 C000 FFED 04171         MOVFF   r0x08, POSTDEC1
002C C000 FFED 04172         MOVFF   r0x09, POSTDEC1
0030 C000 FFED 04173         MOVFF   r0x0a, POSTDEC1
0034 6E00      04174         MOVWF   r0x00
0036 0E02      04175         MOVLW   0x02
0038 CFDB F000 04176         MOVFF   PLUSW2, r0x01
003C 0E03      04177         MOVLW   0x03
003E CFDB F000 04178         MOVFF   PLUSW2, r0x02
               04179 ;       .line   273; main.c     int channelIndex = evnt0-0x90;
0042 6A00      04180         CLRF    r0x03
0044 0E70      04181         MOVLW   0x70
0046 2600      04182         ADDWF   r0x00, F
0048 A0D8      04183         BTFSS   STATUS, 0
004A 0600      04184         DECF    r0x03, F
               04185 ;       .line   274; main.c     int noteIndex = evnt1;
004C 6A00      04186         CLRF    r0x04
               04187 ;       .line   275; main.c     unsigned char value = evnt2;
004E C000 F000 04188         MOVFF   r0x02, r0x05
               04189 ;       .line   276; main.c     if (channelIndex >= 0 && channelIndex <= 7)
0052 80D8      04190         BSF     STATUS, 0
0054 AE00      04191         BTFSS   r0x03, 7
0056 90D8      04192         BCF     STATUS, 0
0058 B0D8      04193         BTFSC   STATUS, 0
005A D000      04194         BRA     _00160_DS_
005C 5000      04195         MOVF    r0x03, W
005E 0F80      04196         ADDLW   0x80
0060 0F80      04197         ADDLW   0x80
0062 E100      04198         BNZ     _00190_DS_
0064 0E08      04199         MOVLW   0x08
0066 5C00      04200         SUBWF   r0x00, W
0068           04201 _00190_DS_:
0068 B0D8      04202         BTFSC   STATUS, 0
006A D000      04203         BRA     _00160_DS_
               04204 ;       .line   279; main.c     switch(noteIndex-_NOTE_SEND_OFFSET)
006C 5000      04205         MOVF    r0x01, W
006E 0FE0      04206         ADDLW   0xe0
0070 6E00      04207         MOVWF   r0x06
0072 0EFF      04208         MOVLW   0xff
0074 2000      04209         ADDWFC  r0x04, W
0076 6E00      04210         MOVWF   r0x07
0078 80D8      04211         BSF     STATUS, 0
007A AE00      04212         BTFSS   r0x07, 7
gpasm-0.13.5 beta               _output/main__mios-gpasm-tmp.asm11-21-2009  19:30:07         PAGE 79


LOC  OBJECT CODE     LINE SOURCE TEXT
  VALUE
 
007C 90D8      04213         BCF     STATUS, 0
007E B0D8      04214         BTFSC   STATUS, 0
0080 D000      04215         BRA     _00167_DS_
0082 5000      04216         MOVF    r0x07, W
0084 0F80      04217         ADDLW   0x80
0086 0F80      04218         ADDLW   0x80
0088 E100      04219         BNZ     _00191_DS_
008A 0E0C      04220         MOVLW   0x0c
008C 5C00      04221         SUBWF   r0x06, W
008E           04222 _00191_DS_:
008E B0D8      04223         BTFSC   STATUS, 0
0090 D000      04224         BRA     _00167_DS_
0092 C000 FFED 04225         MOVFF   r0x0b, POSTDEC1
0096 C000 FFED 04226         MOVFF   r0x0c, POSTDEC1
009A 6A00      04227         CLRF    r0x0c
009C 3400      04228         RLCF    r0x06, W
009E 3600      04229         RLCF    r0x0c, F
00A0 34E8      04230         RLCF    WREG, W
00A2 3600      04231         RLCF    r0x0c, F
00A4 0BFC      04232         ANDLW   0xfc
00A6 6E00      04233         MOVWF   r0x0b
00A8 0E00      04234         MOVLW   UPPER(_00192_DS_)
00AA 6EFB      04235         MOVWF   PCLATU
00AC 0E00      04236         MOVLW   HIGH(_00192_DS_)
00AE 6EFA      04237         MOVWF   PCLATH
00B0 0E00      04238         MOVLW   LOW(_00192_DS_)
00B2 2600      04239         ADDWF   r0x0b, F
00B4 5000      04240         MOVF    r0x0c, W
00B6 22FA      04241         ADDWFC  PCLATH, F
00B8 B0D8      04242         BTFSC   STATUS, 0
00BA 2AFB      04243         INCF    PCLATU, F
00BC 5000      04244         MOVF    r0x0b, W
00BE CFEC F000 04245         MOVFF   PREINC1, r0x0c
00C2 CFEC F000 04246         MOVFF   PREINC1, r0x0b
00C6 6EF9      04247         MOVWF   PCL
00C8           04248 _00192_DS_:
00C8 EF00 F000 04249         GOTO    _00135_DS_
00CC EF00 F000 04250         GOTO    _00135_DS_
00D0 EF00 F000 04251         GOTO    _00135_DS_
00D4 EF00 F000 04252         GOTO    _00142_DS_
00D8 EF00 F000 04253         GOTO    _00142_DS_
00DC EF00 F000 04254         GOTO    _00142_DS_
00E0 EF00 F000 04255         GOTO    _00142_DS_
00E4 EF00 F000 04256         GOTO    _00142_DS_
00E8 EF00 F000 04257         GOTO    _00142_DS_
00EC EF00 F000 04258         GOTO    _00142_DS_
00F0 EF00 F000 04259         GOTO    _00143_DS_
00F4 EF00 F000 04260         GOTO    _00144_DS_
00F8           04261 _00135_DS_:
               04262 ;       .line   286; main.c     matrix_2[noteIndex-_NOTE_SEND_OFFSET][channelIndex] = value;
00F8 5000      04263         MOVF    r0x01, W
00FA 6E00      04264         MOVWF   r0x06
00FC 0EE0      04265         MOVLW   0xe0
00FE 2600      04266         ADDWF   r0x06, F
gpasm-0.13.5 beta               _output/main__mios-gpasm-tmp.asm11-21-2009  19:30:07         PAGE 80


LOC  OBJECT CODE     LINE SOURCE TEXT
  VALUE
 
               04267 ; ;multiply lit val:0x08 by variable r0x06 and store in r0x06
               04268 ; ;Unrolled 8 X 8 multiplication
               04269 ; ;FIXME: the function does not support result==WREG
0100 5000      04270         MOVF    r0x06, W
0102 0D08      04271         MULLW   0x08
0104 CFF3 F000 04272         MOVFF   PRODL, r0x06
0108 6A00      04273         CLRF    r0x07
010A BE00      04274         BTFSC   r0x06, 7
010C 6800      04275         SETF    r0x07
010E 0E00      04276         MOVLW   LOW(_matrix_2)
0110 2600      04277         ADDWF   r0x06, F
0112 0E00      04278         MOVLW   HIGH(_matrix_2)
0114 2200      04279         ADDWFC  r0x07, F
0116 5000      04280         MOVF    r0x00, W
0118 2600      04281         ADDWF   r0x06, F
011A 5000      04282         MOVF    r0x03, W
011C 2200      04283         ADDWFC  r0x07, F
011E C000 FFE1 04284         MOVFF   r0x06, FSR0L
0122 C000 FFE2 04285         MOVFF   r0x07, FSR0H
0126 C000 FFE7 04286         MOVFF   r0x05, INDF0
               04287 ;       .line   287; main.c     break;
012A D000      04288         BRA     _00167_DS_
012C           04289 _00142_DS_:
012C           04290 _00143_DS_:
               04291 ;       .line   298; main.c     matrix_1[noteIndex-_NOTE_SEND_OFFSET-3][channelIndex] = value;
012C 5000      04292         MOVF    r0x01, W
012E 6E00      04293         MOVWF   r0x06
0130 0EDD      04294         MOVLW   0xdd
0132 2600      04295         ADDWF   r0x06, F
               04296 ; ;multiply lit val:0x08 by variable r0x06 and store in r0x06
               04297 ; ;Unrolled 8 X 8 multiplication
               04298 ; ;FIXME: the function does not support result==WREG
0134 5000      04299         MOVF    r0x06, W
0136 0D08      04300         MULLW   0x08
0138 CFF3 F000 04301         MOVFF   PRODL, r0x06
013C 6A00      04302         CLRF    r0x07
013E BE00      04303         BTFSC   r0x06, 7
0140 6800      04304         SETF    r0x07
0142 0E00      04305         MOVLW   LOW(_matrix_1)
0144 2600      04306         ADDWF   r0x06, F
0146 0E00      04307         MOVLW   HIGH(_matrix_1)
0148 2200      04308         ADDWFC  r0x07, F
014A 5000      04309         MOVF    r0x00, W
014C 2600      04310         ADDWF   r0x06, F
014E 5000      04311         MOVF    r0x03, W
0150 2200      04312         ADDWFC  r0x07, F
0152 C000 FFE1 04313         MOVFF   r0x06, FSR0L
0156 C000 FFE2 04314         MOVFF   r0x07, FSR0H
015A C000 FFE7 04315         MOVFF   r0x05, INDF0
               04316 ;       .line   299; main.c     break;
015E D000      04317         BRA     _00167_DS_
0160           04318 _00144_DS_:
               04319 ;       .line   303; main.c     matrix_2[3][channelIndex] = value;
0160 0E00      04320         MOVLW   LOW(_matrix_2 + 24)
gpasm-0.13.5 beta               _output/main__mios-gpasm-tmp.asm11-21-2009  19:30:07         PAGE 81


LOC  OBJECT CODE     LINE SOURCE TEXT
  VALUE
 
0162 2400      04321         ADDWF   r0x00, W
0164 6E00      04322         MOVWF   r0x06
0166 0E00      04323         MOVLW   HIGH(_matrix_2 + 24)
0168 2000      04324         ADDWFC  r0x03, W
016A 6E00      04325         MOVWF   r0x07
016C C000 FFE1 04326         MOVFF   r0x06, FSR0L
0170 C000 FFE2 04327         MOVFF   r0x07, FSR0H
0174 C000 FFE7 04328         MOVFF   r0x02, INDF0
               04329 ;       .line   304; main.c     break;
0178 D000      04330         BRA     _00167_DS_
017A           04331 _00160_DS_:
               04332 ;       .line   311; main.c     else if (channelIndex >= 8 && channelIndex <= 15)
017A 5000      04333         MOVF    r0x03, W
017C 0F80      04334         ADDLW   0x80
017E 0F80      04335         ADDLW   0x80
0180 E100      04336         BNZ     _00193_DS_
0182 0E08      04337         MOVLW   0x08
0184 5C00      04338         SUBWF   r0x00, W
0186           04339 _00193_DS_:
0186 A0D8      04340         BTFSS   STATUS, 0
0188 D000      04341         BRA     _00167_DS_
018A 5000      04342         MOVF    r0x03, W
018C 0F80      04343         ADDLW   0x80
018E 0F80      04344         ADDLW   0x80
0190 E100      04345         BNZ     _00194_DS_
0192 0E10      04346         MOVLW   0x10
0194 5C00      04347         SUBWF   r0x00, W
0196           04348 _00194_DS_:
0196 B0D8      04349         BTFSC   STATUS, 0
0198 D000      04350         BRA     _00167_DS_
               04351 ;       .line   314; main.c     if (noteIndex-_NOTE_SEND_OFFSET >= 0 && noteIndex-_NOTE_SEND_OFFSET <= 16)
019A 5000      04352         MOVF    r0x01, W
019C 0FE0      04353         ADDLW   0xe0
019E 6E00      04354         MOVWF   r0x00
01A0 0EFF      04355         MOVLW   0xff
01A2 2000      04356         ADDWFC  r0x04, W
01A4 6E00      04357         MOVWF   r0x02
01A6 80D8      04358         BSF     STATUS, 0
01A8 AE00      04359         BTFSS   r0x02, 7
01AA 90D8      04360         BCF     STATUS, 0
01AC B0D8      04361         BTFSC   STATUS, 0
01AE D000      04362         BRA     _00148_DS_
01B0 5000      04363         MOVF    r0x02, W
01B2 0F80      04364         ADDLW   0x80
01B4 0F80      04365         ADDLW   0x80
01B6 E100      04366         BNZ     _00195_DS_
01B8 0E11      04367         MOVLW   0x11
01BA 5C00      04368         SUBWF   r0x00, W
01BC           04369 _00195_DS_:
01BC B0D8      04370         BTFSC   STATUS, 0
01BE D000      04371         BRA     _00148_DS_
               04372 ;       .line   318; main.c     for(x = 0; x < 8; x++)
01C0 6A00      04373         CLRF    r0x03
01C2 6A00      04374         CLRF    r0x06
gpasm-0.13.5 beta               _output/main__mios-gpasm-tmp.asm11-21-2009  19:30:07         PAGE 82


LOC  OBJECT CODE     LINE SOURCE TEXT
  VALUE
 
01C4           04375 _00163_DS_:
01C4 5000      04376         MOVF    r0x06, W
01C6 0F80      04377         ADDLW   0x80
01C8 0F80      04378         ADDLW   0x80
01CA E100      04379         BNZ     _00196_DS_
01CC 0E08      04380         MOVLW   0x08
01CE 5C00      04381         SUBWF   r0x03, W
01D0           04382 _00196_DS_:
01D0 E200      04383         BC      _00148_DS_
               04384 ;       .line   320; main.c     matrix_2[4][x] = ((x+0) == noteIndex-_NOTE_SEND_OFFSET) ? value : _COLOR_OFF;
01D2 0E00      04385         MOVLW   LOW(_matrix_2 + 32)
01D4 2400      04386         ADDWF   r0x03, W
01D6 6E00      04387         MOVWF   r0x07
01D8 0E00      04388         MOVLW   HIGH(_matrix_2 + 32)
01DA 2000      04389         ADDWFC  r0x06, W
01DC 6E00      04390         MOVWF   r0x08
01DE 5000      04391         MOVF    r0x03, W
01E0 1800      04392         XORWF   r0x00, W
01E2 E100      04393         BNZ     _00169_DS_
01E4 5000      04394         MOVF    r0x06, W
01E6 1800      04395         XORWF   r0x02, W
01E8 E000      04396         BZ      _00198_DS_
01EA           04397 _00197_DS_:
01EA D000      04398         BRA     _00169_DS_
01EC           04399 _00198_DS_:
01EC C000 F000 04400         MOVFF   r0x05, r0x09
01F0 D000      04401         BRA     _00170_DS_
01F2           04402 _00169_DS_:
01F2 6A00      04403         CLRF    r0x09
01F4           04404 _00170_DS_:
01F4 C000 FFE1 04405         MOVFF   r0x07, FSR0L
01F8 C000 FFE2 04406         MOVFF   r0x08, FSR0H
01FC C000 FFE7 04407         MOVFF   r0x09, INDF0
               04408 ;       .line   321; main.c     matrix_2[5][x] = ((x+8) == noteIndex-_NOTE_SEND_OFFSET) ? value : _COLOR_OFF;
0200 0E00      04409         MOVLW   LOW(_matrix_2 + 40)
0202 2400      04410         ADDWF   r0x03, W
0204 6E00      04411         MOVWF   r0x07
0206 0E00      04412         MOVLW   HIGH(_matrix_2 + 40)
0208 2000      04413         ADDWFC  r0x06, W
020A 6E00      04414         MOVWF   r0x08
020C 5000      04415         MOVF    r0x03, W
020E 0F08      04416         ADDLW   0x08
0210 6E00      04417         MOVWF   r0x09
0212 0E00      04418         MOVLW   0x00
0214 2000      04419         ADDWFC  r0x06, W
0216 6E00      04420         MOVWF   r0x0a
0218 5000      04421         MOVF    r0x09, W
021A 1800      04422         XORWF   r0x00, W
021C E100      04423         BNZ     _00171_DS_
021E 5000      04424         MOVF    r0x0a, W
0220 1800      04425         XORWF   r0x02, W
0222 E000      04426         BZ      _00200_DS_
0224           04427 _00199_DS_:
0224 D000      04428         BRA     _00171_DS_
gpasm-0.13.5 beta               _output/main__mios-gpasm-tmp.asm11-21-2009  19:30:07         PAGE 83


LOC  OBJECT CODE     LINE SOURCE TEXT
  VALUE
 
0226           04429 _00200_DS_:
0226 C000 F000 04430         MOVFF   r0x05, r0x09
022A D000      04431         BRA     _00172_DS_
022C           04432 _00171_DS_:
022C 6A00      04433         CLRF    r0x09
022E           04434 _00172_DS_:
022E C000 FFE1 04435         MOVFF   r0x07, FSR0L
0232 C000 FFE2 04436         MOVFF   r0x08, FSR0H
0236 C000 FFE7 04437         MOVFF   r0x09, INDF0
               04438 ;       .line   318; main.c     for(x = 0; x < 8; x++)
023A 2A00      04439         INCF    r0x03, F
023C B0D8      04440         BTFSC   STATUS, 0
023E 2A00      04441         INCF    r0x06, F
0240 D000      04442         BRA     _00163_DS_
0242           04443 _00148_DS_:
               04444 ;       .line   325; main.c     if (noteIndex-_NOTE_SEND_OFFSET >= 17 && noteIndex-_NOTE_SEND_OFFSET <= 24)
0242 5000      04445         MOVF    r0x02, W
0244 0F80      04446         ADDLW   0x80
0246 0F80      04447         ADDLW   0x80
0248 E100      04448         BNZ     _00201_DS_
024A 0E11      04449         MOVLW   0x11
024C 5C00      04450         SUBWF   r0x00, W
024E           04451 _00201_DS_:
024E E300      04452         BNC     _00151_DS_
0250 5000      04453         MOVF    r0x02, W
0252 0F80      04454         ADDLW   0x80
0254 0F80      04455         ADDLW   0x80
0256 E100      04456         BNZ     _00202_DS_
0258 0E19      04457         MOVLW   0x19
025A 5C00      04458         SUBWF   r0x00, W
025C           04459 _00202_DS_:
025C E200      04460         BC      _00151_DS_
               04461 ;       .line   327; main.c     matrix_2[6][noteIndex-_NOTE_SEND_OFFSET-17] = value;
025E 5000      04462         MOVF    r0x01, W
0260 6E00      04463         MOVWF   r0x03
0262 0ECF      04464         MOVLW   0xcf
0264 2600      04465         ADDWF   r0x03, F
0266 6A00      04466         CLRF    r0x06
0268 BE00      04467         BTFSC   r0x03, 7
026A 6800      04468         SETF    r0x06
026C 0E00      04469         MOVLW   LOW(_matrix_2 + 48)
026E 2600      04470         ADDWF   r0x03, F
0270 0E00      04471         MOVLW   HIGH(_matrix_2 + 48)
0272 2200      04472         ADDWFC  r0x06, F
0274 C000 FFE1 04473         MOVFF   r0x03, FSR0L
0278 C000 FFE2 04474         MOVFF   r0x06, FSR0H
027C C000 FFE7 04475         MOVFF   r0x05, INDF0
0280           04476 _00151_DS_:
               04477 ;       .line   330; main.c     if (noteIndex-_NOTE_SEND_OFFSET >= 25 && noteIndex-_NOTE_SEND_OFFSET <= 32)
0280 5000      04478         MOVF    r0x02, W
0282 0F80      04479         ADDLW   0x80
0284 0F80      04480         ADDLW   0x80
0286 E100      04481         BNZ     _00203_DS_
0288 0E19      04482         MOVLW   0x19
gpasm-0.13.5 beta               _output/main__mios-gpasm-tmp.asm11-21-2009  19:30:07         PAGE 84


LOC  OBJECT CODE     LINE SOURCE TEXT
  VALUE
 
028A 5C00      04483         SUBWF   r0x00, W
028C           04484 _00203_DS_:
028C E300      04485         BNC     _00167_DS_
028E 5000      04486         MOVF    r0x02, W
0290 0F80      04487         ADDLW   0x80
0292 0F80      04488         ADDLW   0x80
0294 E100      04489         BNZ     _00204_DS_
0296 0E21      04490         MOVLW   0x21
0298 5C00      04491         SUBWF   r0x00, W
029A           04492 _00204_DS_:
029A E200      04493         BC      _00167_DS_
               04494 ;       .line   332; main.c     matrix_2[7][noteIndex-_NOTE_SEND_OFFSET-25] = value;
029C 0EC7      04495         MOVLW   0xc7
029E 2600      04496         ADDWF   r0x01, F
02A0 6A00      04497         CLRF    r0x00
02A2 BE00      04498         BTFSC   r0x01, 7
02A4 6800      04499         SETF    r0x00
02A6 0E00      04500         MOVLW   LOW(_matrix_2 + 56)
02A8 2600      04501         ADDWF   r0x01, F
02AA 0E00      04502         MOVLW   HIGH(_matrix_2 + 56)
02AC 2200      04503         ADDWFC  r0x00, F
02AE C000 FFE1 04504         MOVFF   r0x01, FSR0L
02B2 C000 FFE2 04505         MOVFF   r0x00, FSR0H
02B6 C000 FFE7 04506         MOVFF   r0x05, INDF0
02BA           04507 _00167_DS_:
02BA CFEC F000 04508         MOVFF   PREINC1, r0x0a
02BE CFEC F000 04509         MOVFF   PREINC1, r0x09
02C2 CFEC F000 04510         MOVFF   PREINC1, r0x08
02C6 CFEC F000 04511         MOVFF   PREINC1, r0x07
02CA CFEC F000 04512         MOVFF   PREINC1, r0x06
02CE CFEC F000 04513         MOVFF   PREINC1, r0x05
02D2 CFEC F000 04514         MOVFF   PREINC1, r0x04
02D6 CFEC F000 04515         MOVFF   PREINC1, r0x03
02DA CFEC F000 04516         MOVFF   PREINC1, r0x02
02DE CFEC F000 04517         MOVFF   PREINC1, r0x01
02E2 CFEC F000 04518         MOVFF   PREINC1, r0x00
02E6 CFEC FFD9 04519         MOVFF   PREINC1, FSR2L
02EA 0012      04520         RETURN  
               04521 
               04522 ; ; Starting pCode block
               04523 S_main__DISPLAY_Tick    code
0000           04524 _DISPLAY_Tick:
               04525 ;       .line   242; main.c     void DISPLAY_Tick(void) __wparam
0000 C000 FFED 04526         MOVFF   r0x00, POSTDEC1
0004 0000      04527         BANKSEL _app_flags
               04528 ;       .line   245; main.c     if( !app_flags.DISPLAY_UPDATE_REQ )
0006 B100      04529         BTFSC   _app_flags, 0, B
0008 D000      04530         BRA     _00122_DS_
               04531 ;       .line   246; main.c     return;
000A D000      04532         BRA     _00123_DS_
000C           04533 _00122_DS_:
000C 0000      04534         BANKSEL _app_flags
               04535 ;       .line   249; main.c     app_flags.DISPLAY_UPDATE_REQ = 0;
000E 9100      04536         BCF     _app_flags, 0, B
gpasm-0.13.5 beta               _output/main__mios-gpasm-tmp.asm11-21-2009  19:30:07         PAGE 85


LOC  OBJECT CODE     LINE SOURCE TEXT
  VALUE
 
               04537 ;       .line   252; main.c     MIOS_LCD_CursorSet(0x40 + 0);
0010 0E40      04538         MOVLW   0x40
0012 EC00 F000 04539         CALL    _MIOS_LCD_CursorSet
0016 0000      04540         BANKSEL _last_ain_pin
               04541 ;       .line   253; main.c     MIOS_LCD_PrintBCD2(last_ain_pin + 1);
0018 2900      04542         INCF    _last_ain_pin, W, B
001A 6E00      04543         MOVWF   r0x00
001C 5000      04544         MOVF    r0x00, W
001E EC00 F000 04545         CALL    _MIOS_LCD_PrintBCD2
               04546 ;       .line   254; main.c     MIOS_LCD_PrintChar(':');
0022 0E3A      04547         MOVLW   0x3a
0024 EC00 F000 04548         CALL    _MIOS_LCD_PrintChar
0028 0000      04549         BANKSEL _last_ain_pin
               04550 ;       .line   255; main.c     MIOS_LCD_PrintBCD3(MIOS_AIN_Pin7bitGet(last_ain_pin));
002A 5100      04551         MOVF    _last_ain_pin, W, B
002C EC00 F000 04552         CALL    _MIOS_AIN_Pin7bitGet
0030 6E00      04553         MOVWF   r0x00
0032 5000      04554         MOVF    r0x00, W
0034 EC00 F000 04555         CALL    _MIOS_LCD_PrintBCD3
               04556 ;       .line   258; main.c     MIOS_LCD_CursorSet(0x40 + 7);
0038 0E47      04557         MOVLW   0x47
003A EC00 F000 04558         CALL    _MIOS_LCD_CursorSet
003E 0000      04559         BANKSEL _last_din_pin
               04560 ;       .line   259; main.c     MIOS_LCD_PrintBCD3(last_din_pin + 1);
0040 2900      04561         INCF    _last_din_pin, W, B
0042 6E00      04562         MOVWF   r0x00
0044 5000      04563         MOVF    r0x00, W
0046 EC00 F000 04564         CALL    _MIOS_LCD_PrintBCD3
004A 0000      04565         BANKSEL _last_din_pin
               04566 ;       .line   260; main.c     MIOS_LCD_PrintChar(MIOS_DIN_PinGet(last_din_pin) ? 'o' : '*');
004C 5100      04567         MOVF    _last_din_pin, W, B
004E EC00 F000 04568         CALL    _MIOS_DIN_PinGet
0052 6E00      04569         MOVWF   r0x00
0054 5000      04570         MOVF    r0x00, W
0056 E000      04571         BZ      _00125_DS_
0058 0E6F      04572         MOVLW   0x6f
005A 6E00      04573         MOVWF   r0x00
005C D000      04574         BRA     _00126_DS_
005E           04575 _00125_DS_:
005E 0E2A      04576         MOVLW   0x2a
0060 6E00      04577         MOVWF   r0x00
0062           04578 _00126_DS_:
0062 5000      04579         MOVF    r0x00, W
0064 EC00 F000 04580         CALL    _MIOS_LCD_PrintChar
               04581 ;       .line   263; main.c     MIOS_LCD_CursorSet(0x40 + 12);
0068 0E4C      04582         MOVLW   0x4c
006A EC00 F000 04583         CALL    _MIOS_LCD_CursorSet
006E 0000      04584         BANKSEL _last_dout_pin
               04585 ;       .line   264; main.c     MIOS_LCD_PrintBCD3(last_dout_pin + 1);
0070 2900      04586         INCF    _last_dout_pin, W, B
0072 6E00      04587         MOVWF   r0x00
0074 5000      04588         MOVF    r0x00, W
0076 EC00 F000 04589         CALL    _MIOS_LCD_PrintBCD3
007A 0000      04590         BANKSEL _last_dout_pin
gpasm-0.13.5 beta               _output/main__mios-gpasm-tmp.asm11-21-2009  19:30:07         PAGE 86


LOC  OBJECT CODE     LINE SOURCE TEXT
  VALUE
 
               04591 ;       .line   265; main.c     MIOS_LCD_PrintChar(MIOS_DOUT_PinGet(last_dout_pin) ? '*' : 'o');
007C 5100      04592         MOVF    _last_dout_pin, W, B
007E EC00 F000 04593         CALL    _MIOS_DOUT_PinGet
0082 6E00      04594         MOVWF   r0x00
0084 5000      04595         MOVF    r0x00, W
0086 E000      04596         BZ      _00127_DS_
0088 0E2A      04597         MOVLW   0x2a
008A 6E00      04598         MOVWF   r0x00
008C D000      04599         BRA     _00128_DS_
008E           04600 _00127_DS_:
008E 0E6F      04601         MOVLW   0x6f
0090 6E00      04602         MOVWF   r0x00
0092           04603 _00128_DS_:
0092 5000      04604         MOVF    r0x00, W
0094 EC00 F000 04605         CALL    _MIOS_LCD_PrintChar
0098           04606 _00123_DS_:
0098 CFEC F000 04607         MOVFF   PREINC1, r0x00
009C 0012      04608         RETURN  
               04609 
               04610 ; ; Starting pCode block
               04611 S_main__DISPLAY_Init    code
0000           04612 _DISPLAY_Init:
               04613 ;       .line   223; main.c     MIOS_LCD_Clear();
0000 EC00 F000 04614         CALL    _MIOS_LCD_Clear
               04615 ;       .line   226; main.c     MIOS_LCD_CursorSet(0x00); // first line
0004 0E00      04616         MOVLW   0x00
0006 EC00 F000 04617         CALL    _MIOS_LCD_CursorSet
               04618 ;       .line   227; main.c     MIOS_LCD_PrintCString("2AIN   DIN  DOUT");
000A 0E00      04619         MOVLW   UPPER(__str_0)
000C 6EED      04620         MOVWF   POSTDEC1
000E 0E00      04621         MOVLW   HIGH(__str_0)
0010 6EED      04622         MOVWF   POSTDEC1
0012 0E00      04623         MOVLW   LOW(__str_0)
0014 EC00 F000 04624         CALL    _MIOS_LCD_PrintCString
0018 0E02      04625         MOVLW   0x02
001A 26E9      04626         ADDWF   FSR1L, F
               04627 ;       .line   228; main.c     MIOS_LCD_CursorSet(0x40); // second line
001C 0E40      04628         MOVLW   0x40
001E EC00 F000 04629         CALL    _MIOS_LCD_CursorSet
               04630 ;       .line   229; main.c     MIOS_LCD_PrintCString("xx:xxx xxxx xxxx");
0022 0E00      04631         MOVLW   UPPER(__str_1)
0024 6EED      04632         MOVWF   POSTDEC1
0026 0E00      04633         MOVLW   HIGH(__str_1)
0028 6EED      04634         MOVWF   POSTDEC1
002A 0E00      04635         MOVLW   LOW(__str_1)
002C EC00 F000 04636         CALL    _MIOS_LCD_PrintCString
0030 0E02      04637         MOVLW   0x02
0032 26E9      04638         ADDWF   FSR1L, F
0034 0000      04639         BANKSEL _app_flags
               04640 ;       .line   232; main.c     app_flags.DISPLAY_UPDATE_REQ = 1;
0036 8100      04641         BSF     _app_flags, 0, B
               04642 ;       .line   235; main.c     DoStartupPattern();
0038 EC00 F000 04643         CALL    _DoStartupPattern
003C 0012      04644         RETURN  
gpasm-0.13.5 beta               _output/main__mios-gpasm-tmp.asm11-21-2009  19:30:07         PAGE 87


LOC  OBJECT CODE     LINE SOURCE TEXT
  VALUE
 
               04645 
               04646 ; ; Starting pCode block
               04647 S_main__Timer   code
0000           04648 _Timer:
               04649 ;       .line   213; main.c     }
0000 0012      04650         RETURN  
               04651 
               04652 ; ; Starting pCode block
               04653 S_main__Tick    code
0000           04654 _Tick:
               04655 ;       .line   205; main.c     }
0000 0012      04656         RETURN  
               04657 
               04658 ; ; Starting pCode block
               04659 S_main__Init    code
0000           04660 _Init:
               04661 ;       .line   165; main.c     test_mode = 1;
0000 0E01      04662         MOVLW   0x01
0002 0000      04663         BANKSEL _test_mode
0004 6F00      04664         MOVWF   _test_mode, B
               04665 ; removed redundant BANKSEL
0006 6B00      04666         CLRF    (_test_mode + 1), B
0008 0000      04667         BANKSEL _record_sysex
               04668 ;       .line   166; main.c     record_sysex = 0;
000A 6B00      04669         CLRF    _record_sysex, B
               04670 ; removed redundant BANKSEL
000C 6B00      04671         CLRF    (_record_sysex + 1), B
000E 0000      04672         BANKSEL _last_sysex
               04673 ;       .line   167; main.c     last_sysex = 0x00;
0010 6B00      04674         CLRF    _last_sysex, B
0012 0000      04675         BANKSEL _clock_ticks
               04676 ;       .line   168; main.c     clock_ticks = 0;
0014 6B00      04677         CLRF    _clock_ticks, B
               04678 ; removed redundant BANKSEL
0016 6B00      04679         CLRF    (_clock_ticks + 1), B
0018 0000      04680         BANKSEL _clock_beats
               04681 ;       .line   169; main.c     clock_beats = 0;
001A 6B00      04682         CLRF    _clock_beats, B
               04683 ; removed redundant BANKSEL
001C 6B00      04684         CLRF    (_clock_beats + 1), B
001E 0000      04685         BANKSEL _clock_bars
               04686 ;       .line   170; main.c     clock_bars = 0;
0020 6B00      04687         CLRF    _clock_bars, B
               04688 ; removed redundant BANKSEL
0022 6B00      04689         CLRF    (_clock_bars + 1), B
               04690 ;       .line   173; main.c     MIOS_MIDI_MergerSet(MIOS_MIDI_MERGER_MBLINK_EP);
0024 0E02      04691         MOVLW   0x02
0026 EC00 F000 04692         CALL    _MIOS_MIDI_MergerSet
               04693 ;       .line   176; main.c     MIOS_SRIO_UpdateFrqSet(1); // ms
002A 0E01      04694         MOVLW   0x01
002C EC00 F000 04695         CALL    _MIOS_SRIO_UpdateFrqSet
               04696 ;       .line   179; main.c     MIOS_SRIO_NumberSet(NUMBER_OF_SRIO);
0030 0E08      04697         MOVLW   0x08
0032 EC00 F000 04698         CALL    _MIOS_SRIO_NumberSet
gpasm-0.13.5 beta               _output/main__mios-gpasm-tmp.asm11-21-2009  19:30:07         PAGE 88


LOC  OBJECT CODE     LINE SOURCE TEXT
  VALUE
 
               04699 ;       .line   182; main.c     MIOS_SRIO_DebounceSet(DIN_DEBOUNCE_VALUE);
0036 0E0A      04700         MOVLW   0x0a
0038 EC00 F000 04701         CALL    _MIOS_SRIO_DebounceSet
               04702 ;       .line   184; main.c     MIOS_SRIO_TS_SensitivitySet(DIN_TS_SENSITIVITY);
003C 0E00      04703         MOVLW   0x00
003E EC00 F000 04704         CALL    _MIOS_SRIO_TS_SensitivitySet
               04705 ;       .line   187; main.c     MIOS_AIN_NumberSet(AIN_NUMBER_INPUTS);
0042 0E40      04706         MOVLW   0x40
0044 EC00 F000 04707         CALL    _MIOS_AIN_NumberSet
               04708 ;       .line   189; main.c     MIOS_AIN_Muxed();
0048 EC00 F000 04709         CALL    _MIOS_AIN_Muxed
               04710 ;       .line   193; main.c     MIOS_AIN_DeadbandSet(AIN_DEADBAND);
004C 0E07      04711         MOVLW   0x07
004E EC00 F000 04712         CALL    _MIOS_AIN_DeadbandSet
               04713 ;       .line   196; main.c     MIOS_DOUT_SRSet(_MATRIX_1_DOUT_START, 0);
0052 0E00      04714         MOVLW   0x00
0054 6EED      04715         MOVWF   POSTDEC1
0056 0E00      04716         MOVLW   0x00
0058 EC00 F000 04717         CALL    _MIOS_DOUT_SRSet
005C 2AE9      04718         INCF    FSR1L, F
               04719 ;       .line   197; main.c     MIOS_DOUT_SRSet(_MATRIX_2_DOUT_START, 0);
005E 0E00      04720         MOVLW   0x00
0060 6EED      04721         MOVWF   POSTDEC1
0062 0E04      04722         MOVLW   0x04
0064 EC00 F000 04723         CALL    _MIOS_DOUT_SRSet
0068 2AE9      04724         INCF    FSR1L, F
006A 0012      04725         RETURN  
               04726 
               04727 ; ; Starting pCode block for Ival
               04728         code
0000           04729 _pot_event_map:
0000 32B0 32B1 04730         DB      0xb0, 0x32, 0xb1, 0x32, 0xb2, 0x32, 0xb3, 0x32, 0xb4, 0x32, 0xb5, 0x32
0004 32B2 32B3
0008 32B4 32B5
000C 32B6 32B7 04731         DB      0xb6, 0x32, 0xb7, 0x32, 0xb0, 0x33, 0xb1, 0x33, 0xb2, 0x33, 0xb3, 0x33
0010 33B0 33B1
0014 33B2 33B3
0018 33B4 33B5 04732         DB      0xb4, 0x33, 0xb5, 0x33, 0xb6, 0x33, 0xb7, 0x33, 0xb0, 0x34, 0xb1, 0x34
001C 33B6 33B7
0020 34B0 34B1
0024 34B2 34B3 04733         DB      0xb2, 0x34, 0xb3, 0x34, 0xb4, 0x34, 0xb5, 0x34, 0xb6, 0x34, 0xb7, 0x34
0028 34B4 34B5
002C 34B6 34B7
0030 35B0 35B1 04734         DB      0xb0, 0x35, 0xb1, 0x35, 0xb2, 0x35, 0xb3, 0x35, 0xb4, 0x35, 0xb5, 0x35
0034 35B2 35B3
0038 35B4 35B5
003C 35B6 35B7 04735         DB      0xb6, 0x35, 0xb7, 0x35, 0xb0, 0x36, 0xb1, 0x36, 0xb2, 0x36, 0xb3, 0x36
0040 36B0 36B1
0044 36B2 36B3
0048 36B4 36B5 04736         DB      0xb4, 0x36, 0xb5, 0x36, 0xb6, 0x36, 0xb7, 0x36, 0xb0, 0x37, 0xb1, 0x37
004C 36B6 36B7
0050 37B0 37B1
0054 37B2 37B3 04737         DB      0xb2, 0x37, 0xb3, 0x37, 0xb4, 0x37, 0xb5, 0x37, 0xb6, 0x37, 0xb7, 0x37
0058 37B4 37B5
gpasm-0.13.5 beta               _output/main__mios-gpasm-tmp.asm11-21-2009  19:30:07         PAGE 89


LOC  OBJECT CODE     LINE SOURCE TEXT
  VALUE
 
005C 37B6 37B7
0060 38B0 38B1 04738         DB      0xb0, 0x38, 0xb1, 0x38, 0xb2, 0x38, 0xb3, 0x38, 0xb4, 0x38, 0xb5, 0x38
0064 38B2 38B3
0068 38B4 38B5
006C 38B6 38B7 04739         DB      0xb6, 0x38, 0xb7, 0x38, 0xb0, 0x39, 0xb1, 0x39, 0xb2, 0x39, 0xb3, 0x39
0070 39B0 39B1
0074 39B2 39B3
0078 39B4 39B5 04740         DB      0xb4, 0x39, 0xb5, 0x39, 0xb6, 0x39, 0xb7, 0x39
007C 39B6 39B7
               04741 ; ; Starting pCode block for Ival
0080           04742 _button_event_map:
0080 0098 0198 04743         DB      0x98, 0x00, 0x98, 0x01, 0x98, 0x02, 0x98, 0x03, 0x98, 0x04, 0x98, 0x05
0084 0298 0398
0088 0498 0598
008C 0698 0798 04744         DB      0x98, 0x06, 0x98, 0x07, 0x98, 0x08, 0x98, 0x09, 0x98, 0x0a, 0x98, 0x0b
0090 0898 0998
0094 0A98 0B98
0098 0C98 0D98 04745         DB      0x98, 0x0c, 0x98, 0x0d, 0x98, 0x0e, 0x98, 0x0f, 0x98, 0x10, 0x98, 0x11
009C 0E98 0F98
00A0 1098 1198
00A4 1298 1398 04746         DB      0x98, 0x12, 0x98, 0x13, 0x98, 0x14, 0x98, 0x15, 0x98, 0x16, 0x98, 0x17
00A8 1498 1598
00AC 1698 1798
00B0 1898 1998 04747         DB      0x98, 0x18, 0x98, 0x19, 0x98, 0x1a, 0x98, 0x1b, 0x98, 0x1c, 0x98, 0x1d
00B4 1A98 1B98
00B8 1C98 1D98
00BC 1E98 1F98 04748         DB      0x98, 0x1e, 0x98, 0x1f, 0x90, 0x0b, 0x91, 0x0b, 0x92, 0x0b, 0x93, 0x0b
00C0 0B90 0B91
00C4 0B92 0B93
00C8 0B97 0B96 04749         DB      0x97, 0x0b, 0x96, 0x0b, 0x95, 0x0b, 0x94, 0x0b, 0x91, 0x01, 0x91, 0x02
00CC 0B95 0B94
00D0 0191 0291
00D4 0190 0290 04750         DB      0x90, 0x01, 0x90, 0x02, 0x93, 0x02, 0x93, 0x01, 0x92, 0x01, 0x92, 0x02
00D8 0293 0193
00DC 0192 0292
00E0 0090 0091 04751         DB      0x90, 0x00, 0x91, 0x00, 0x93, 0x00, 0x92, 0x00, 0x95, 0x02, 0x95, 0x01
00E4 0093 0092
00E8 0295 0195
00EC 0194 0294 04752         DB      0x94, 0x01, 0x94, 0x02, 0x94, 0x00, 0x95, 0x00, 0x97, 0x00, 0x96, 0x00
00F0 0094 0095
00F4 0097 0096
00F8 0297 0197 04753         DB      0x97, 0x02, 0x97, 0x01, 0x96, 0x01, 0x96, 0x02
00FC 0196 0296
               04754 ; ; Starting pCode block
0100           04755 __str_0:
0100 4132 4E49 04756         DB      0x32, 0x41, 0x49, 0x4e, 0x20, 0x20, 0x20, 0x44, 0x49, 0x4e, 0x20, 0x20
0104 2020 4420
0108 4E49 2020
010C 4F44 5455 04757         DB      0x44, 0x4f, 0x55, 0x54, 0x00
0110 0000
               04758 ; ; Starting pCode block
0112           04759 __str_1:
0112 7878 783A 04760         DB      0x78, 0x78, 0x3a, 0x78, 0x78, 0x78, 0x20, 0x78, 0x78, 0x78, 0x78, 0x20
0116 7878 7820
gpasm-0.13.5 beta               _output/main__mios-gpasm-tmp.asm11-21-2009  19:30:07         PAGE 90


LOC  OBJECT CODE     LINE SOURCE TEXT
  VALUE
 
011A 7878 2078
011E 7878 7878 04761         DB      0x78, 0x78, 0x78, 0x78, 0x00
0122 0000
               04762 
               04763 
               04764 ; Statistics:
               04765 ; code size:     8666 (0x21da) bytes ( 6.61%)
               04766 ;                4333 (0x10ed) words
               04767 ; udata size:      35 (0x0023) bytes ( 2.73%)
               04768 ; access size:     13 (0x000d) bytes
               04769 
               04770 
gpasm-0.13.5 beta               _output/main__mios-gpasm-tmp.asm11-21-2009  19:30:07         PAGE 91


SYMBOL TABLE
  LABEL                             VALUE 

FSR0H                             00000FE2
FSR0L                             00000FE1
FSR1L                             00000FE9
FSR2L                             00000FD9
INDF0                             00000FE7
PCL                               00000FF9
PCLATH                            00000FFA
PCLATU                            00000FFB
PLUSW2                            00000FDB
POSTDEC1                          00000FED
PREINC1                           00000FEC
PRODL                             00000FF3
STATUS                            00000FD8
TABLAT                            00000FF5
TBLPTRH                           00000FF7
TBLPTRL                           00000FF6
TBLPTRU                           00000FF8
WREG                              00000FE8
_00122_DS_                        0000000C
_00123_DS_                        00000098
_00125_DS_                        0000005E
_00126_DS_                        00000062
_00127_DS_                        0000008E
_00128_DS_                        00000092
_00135_DS_                        000000F8
_00142_DS_                        0000012C
_00143_DS_                        0000012C
_00144_DS_                        00000160
_00148_DS_                        00000242
_00151_DS_                        00000280
_00160_DS_                        0000017A
_00163_DS_                        000001C4
_00167_DS_                        000002BA
_00169_DS_                        000001F2
_00170_DS_                        000001F4
_00171_DS_                        0000022C
_00172_DS_                        0000022E
_00190_DS_                        00000068
_00191_DS_                        0000008E
_00192_DS_                        000000C8
_00193_DS_                        00000186
_00194_DS_                        00000196
_00195_DS_                        000001BC
_00196_DS_                        000001D0
_00197_DS_                        000001EA
_00198_DS_                        000001EC
_00199_DS_                        00000224
_00200_DS_                        00000226
_00201_DS_                        0000024E
_00202_DS_                        0000025C
_00203_DS_                        0000028C
_00204_DS_                        0000029A
_00217_DS_                        00000044
gpasm-0.13.5 beta               _output/main__mios-gpasm-tmp.asm11-21-2009  19:30:07         PAGE 92


LOC  OBJECT CODE     LINE SOURCE TEXT
  VALUE
 
_00218_DS_                        0000004E
_00219_DS_                        00000056
_00223_DS_                        00000078
_00229_DS_                        00000090
_00230_DS_                        000000A8
_00232_DS_                        000000F6
_00234_DS_                        00000140
_00236_DS_                        00000166
_00239_DS_                        0000016E
_00242_DS_                        00000176
_00244_DS_                        0000017C
_00248_DS_                        0000018E
_00273_DS_                        00000030
_00280_DS_                        00000062
_00281_DS_                        00000064
_00285_DS_                        00000082
_00287_DS_                        0000014C
_00289_DS_                        00000188
_00290_DS_                        0000018A
_00299_DS_                        0000004E
_00303_DS_                        000000D4
_00309_DS_                        00000058
_00318_DS_                        000000C4
_00319_DS_                        000000CA
_00320_DS_                        000000D0
_00321_DS_                        000000D6
_00322_DS_                        000000DC
_00326_DS_                        000000E0
_00330_DS_                        00000084
_00331_DS_                        00000088
_00340_DS_                        0000009E
_00341_DS_                        000000A0
_00367_DS_                        00000072
_00371_DS_                        00000056
_00373_DS_                        0000009E
_00374_DS_                        000000AE
_00375_DS_                        000000E0
_00379_DS_                        000000C4
_00381_DS_                        0000010C
_00382_DS_                        0000011C
_00383_DS_                        00000128
_00390_DS_                        0000004E
_00394_DS_                        000000BC
_00400_DS_                        00000042
_00402_DS_                        0000004C
_00403_DS_                        00000060
_00404_DS_                        0000007C
_00405_DS_                        000000CE
_00406_DS_                        000000EA
_00411_DS_                        000001A4
_00412_DS_                        000001AC
_00413_DS_                        000001B4
_00414_DS_                        000001BC
_00415_DS_                        000001C4
gpasm-0.13.5 beta               _output/main__mios-gpasm-tmp.asm11-21-2009  19:30:07         PAGE 93


LOC  OBJECT CODE     LINE SOURCE TEXT
  VALUE
 
_00416_DS_                        000001CC
_00417_DS_                        000001D4
_00418_DS_                        000001D8
_00419_DS_                        00000042
_00422_DS_                        0000009E
_00423_DS_                        000000A4
_00426_DS_                        000000F6
_00427_DS_                        00000030
_00430_DS_                        00000108
_00431_DS_                        000001DE
_00434_DS_                        00000258
_00435_DS_                        0000025E
_00438_DS_                        000002CA
_00439_DS_                        00000126
_00442_DS_                        000002DA
_00459_DS_                        0000004E
_00460_DS_                        000000B0
_00461_DS_                        00000134
_00462_DS_                        00000150
_00463_DS_                        0000018C
_00464_DS_                        000001EA
_00465_DS_                        0000026A
_00470_DS_                        00000038
_00473_DS_                        00000094
_00474_DS_                        0000009A
_00477_DS_                        000000E8
_00478_DS_                        00000022
_00481_DS_                        000000F8
_00490_DS_                        0000002E
_00491_DS_                        00000044
_00492_DS_                        000000A6
_00497_DS_                        00000046
_00500_DS_                        000000A2
_00501_DS_                        000000A8
_00504_DS_                        000000FA
_00505_DS_                        0000002E
_00508_DS_                        00000110
_00517_DS_                        0000003C
_00518_DS_                        00000052
_00519_DS_                        000000B4
_00524_DS_                        00000046
_00527_DS_                        000000A2
_00528_DS_                        000000A8
_00531_DS_                        000000FA
_00532_DS_                        0000002E
_00535_DS_                        00000110
_00544_DS_                        0000003C
_00545_DS_                        00000052
_00546_DS_                        000000B4
_00551_DS_                        00000104
_00552_DS_                        00000146
_00553_DS_                        000001C0
_00554_DS_                        00000274
_00555_DS_                        00000364
gpasm-0.13.5 beta               _output/main__mios-gpasm-tmp.asm11-21-2009  19:30:07         PAGE 94


LOC  OBJECT CODE     LINE SOURCE TEXT
  VALUE
 
_00556_DS_                        00000454
_00557_DS_                        00000544
_00558_DS_                        00000634
_00559_DS_                        00000724
_00560_DS_                        00000816
_00561_DS_                        0000090C
_00562_DS_                        00000A04
_00563_DS_                        00000AFC
_00564_DS_                        00000BF4
_00565_DS_                        00000CEA
_00566_DS_                        00000DE0
_00567_DS_                        00000ED6
_00568_DS_                        00000F90
_00569_DS_                        0000100E
_00572_DS_                        0000003A
_00574_DS_                        0000104E
_00575_DS_                        0000105A
_00582_DS_                        00000048
_00583_DS_                        00000062
_00584_DS_                        00000076
_00585_DS_                        000000B8
_100560_DS_                       000000F6
_10551_DS_                        00001056
_110561_DS_                       0000009C
_120562_DS_                       000000F4
_130563_DS_                       00000106
_140564_DS_                       00000256
_150565_DS_                       000002C8
_160566_DS_                       000002D8
_170567_DS_                       000000B0
_180568_DS_                       000000E0
_190569_DS_                       000000F0
_20552_DS_                        000000A0
_30553_DS_                        000000F8
_40554_DS_                        0000010E
_50555_DS_                        000000A0
_60556_DS_                        000000F8
_70557_DS_                        0000010E
_80558_DS_                        00000092
_90559_DS_                        000000E6
_ADCON0                           00000000
_ADCON0bits                       00000000
_ADCON1                           00000000
_ADCON1bits                       00000000
_ADRESH                           00000000
_ADRESL                           00000000
_AIN_NotifyChange                 00000000
_BSR                              00000000
_CCP1CON                          00000000
_CCP1CONbits                      00000000
_CCP2CON                          00000000
_CCP2CONbits                      00000000
_CCPR1H                           00000000
_CCPR1L                           00000000
gpasm-0.13.5 beta               _output/main__mios-gpasm-tmp.asm11-21-2009  19:30:07         PAGE 95


LOC  OBJECT CODE     LINE SOURCE TEXT
  VALUE
 
_CCPR2H                           00000000
_CCPR2L                           00000000
_ClearMatrix                      00000000
_DIN_NotifyToggle                 00000000
_DISPLAY_Init                     00000000
_DISPLAY_Tick                     00000000
_DisplayLED                       00000000
_DoMichaelKnightPattern           00000000
_DoMichaelKnightPattern_column_1_1  00000000
_DoShutdownPattern                00000000
_DoShutdownPattern_column_1_1     00000000
_DoShutdownPattern_row_1_1        00000000
_DoStartupPattern                 00000000
_DoStartupPattern_color_1_1       00000000
_DoStartupPattern_column_1_1      00000000
_DoStartupPattern_row_1_1         00000000
_EEADR                            00000000
_EECON1                           00000000
_EECON1bits                       00000000
_EECON2                           00000000
_EEDATA                           00000000
_ENC_NotifyChange                 00000000
_FSR0H                            00000000
_FSR0L                            00000000
_FSR1H                            00000000
_FSR1L                            00000000
_FSR2H                            00000000
_FSR2L                            00000000
_INDF0                            00000000
_INDF1                            00000000
_INDF2                            00000000
_INTCON                           00000000
_INTCON2                          00000000
_INTCON2bits                      00000000
_INTCON3                          00000000
_INTCON3bits                      00000000
_INTCONbits                       00000000
_IPR1                             00000000
_IPR1bits                         00000000
_IPR2                             00000000
_IPR2bits                         00000000
_Init                             00000000
_LATA                             00000000
_LATAbits                         00000000
_LATB                             00000000
_LATBbits                         00000000
_LATC                             00000000
_LATCbits                         00000000
_LATD                             00000000
_LATDbits                         00000000
_LATE                             00000000
_LATEbits                         00000000
_LVDCON                           00000000
_LVDCONbits                       00000000
gpasm-0.13.5 beta               _output/main__mios-gpasm-tmp.asm11-21-2009  19:30:07         PAGE 96


LOC  OBJECT CODE     LINE SOURCE TEXT
  VALUE
 
_MIOS_AIN_DeadbandSet             00000000
_MIOS_AIN_Muxed                   00000000
_MIOS_AIN_NumberSet               00000000
_MIOS_AIN_Pin7bitGet              00000000
_MIOS_BOX_CFG0                    00000000
_MIOS_BOX_CFG1                    00000000
_MIOS_BOX_STAT                    00000000
_MIOS_DIN_PinGet                  00000000
_MIOS_DOUT_PinGet                 00000000
_MIOS_DOUT_PinSet                 00000000
_MIOS_DOUT_PinSet1                00000000
_MIOS_DOUT_SRSet                  00000000
_MIOS_Delay                       00000000
_MIOS_ENC_PIN_TABLE               00000000
_MIOS_LCD_Clear                   00000000
_MIOS_LCD_CursorSet               00000000
_MIOS_LCD_PrintBCD2               00000000
_MIOS_LCD_PrintBCD3               00000000
_MIOS_LCD_PrintBCD4               00000000
_MIOS_LCD_PrintCString            00000000
_MIOS_LCD_PrintChar               00000000
_MIOS_MIDI_BeginStream            00000000
_MIOS_MIDI_EndStream              00000000
_MIOS_MIDI_MergerSet              00000000
_MIOS_MIDI_TxBufferPut            00000000
_MIOS_MPROC_EVENT_TABLE           00000000
_MIOS_PARAMETER1                  00000000
_MIOS_PARAMETER2                  00000000
_MIOS_PARAMETER3                  00000000
_MIOS_SRIO_DebounceSet            00000000
_MIOS_SRIO_NumberSet              00000000
_MIOS_SRIO_TS_SensitivitySet      00000000
_MIOS_SRIO_UpdateFrqSet           00000000
_MPROC_NotifyFoundEvent           00000000
_MPROC_NotifyReceivedByte         00000000
_MPROC_NotifyReceivedEvnt         00000000
_MPROC_NotifyTimeout              00000000
_OSCCON                           00000000
_OSCCONbits                       00000000
_PCL                              00000000
_PCLATH                           00000000
_PCLATU                           00000000
_PIE1                             00000000
_PIE1bits                         00000000
_PIE2                             00000000
_PIE2bits                         00000000
_PIR1                             00000000
_PIR1bits                         00000000
_PIR2                             00000000
_PIR2bits                         00000000
_PLUSW0                           00000000
_PLUSW1                           00000000
_PLUSW2                           00000000
_PORTA                            00000000
gpasm-0.13.5 beta               _output/main__mios-gpasm-tmp.asm11-21-2009  19:30:07         PAGE 97


LOC  OBJECT CODE     LINE SOURCE TEXT
  VALUE
 
_PORTAbits                        00000000
_PORTB                            00000000
_PORTBbits                        00000000
_PORTC                            00000000
_PORTCbits                        00000000
_PORTD                            00000000
_PORTDbits                        00000000
_PORTE                            00000000
_PORTEbits                        00000000
_POSTDEC0                         00000000
_POSTDEC1                         00000000
_POSTDEC2                         00000000
_POSTINC0                         00000000
_POSTINC1                         00000000
_POSTINC2                         00000000
_PR2                              00000000
_PREINC0                          00000000
_PREINC1                          00000000
_PREINC2                          00000000
_PRODH                            00000000
_PRODL                            00000000
_RCON                             00000000
_RCONbits                         00000000
_RCREG                            00000000
_RCSTA                            00000000
_RCSTAbits                        00000000
_SPBRG                            00000000
_SR_Service_Finish                00000000
_SR_Service_Prepare               00000000
_SR_Service_Prepare_row_1_1       00000000
_SSPADD                           00000000
_SSPBUF                           00000000
_SSPCON1                          00000000
_SSPCON1bits                      00000000
_SSPCON2                          00000000
_SSPCON2bits                      00000000
_SSPSTAT                          00000000
_SSPSTATbits                      00000000
_STATUS                           00000000
_STATUSbits                       00000000
_STKPTR                           00000000
_STKPTRbits                       00000000
_T0CON                            00000000
_T0CONbits                        00000000
_T1CON                            00000000
_T1CONbits                        00000000
_T2CON                            00000000
_T2CONbits                        00000000
_T3CON                            00000000
_T3CONbits                        00000000
_TABLAT                           00000000
_TBLPTRH                          00000000
_TBLPTRL                          00000000
_TBLPTRU                          00000000
gpasm-0.13.5 beta               _output/main__mios-gpasm-tmp.asm11-21-2009  19:30:07         PAGE 98


LOC  OBJECT CODE     LINE SOURCE TEXT
  VALUE
 
_TMR0H                            00000000
_TMR0L                            00000000
_TMR1H                            00000000
_TMR1L                            00000000
_TMR2                             00000000
_TMR3H                            00000000
_TMR3L                            00000000
_TOSH                             00000000
_TOSL                             00000000
_TOSU                             00000000
_TRISA                            00000000
_TRISAbits                        00000000
_TRISB                            00000000
_TRISBbits                        00000000
_TRISC                            00000000
_TRISCbits                        00000000
_TRISD                            00000000
_TRISDbits                        00000000
_TRISE                            00000000
_TRISEbits                        00000000
_TXREG                            00000000
_TXSTA                            00000000
_TXSTAbits                        00000000
_TestMatrix1                      00000000
_TestMatrix1_column_1_1           00000000
_TestMatrix1_row_1_1              00000000
_TestMatrix2                      00000000
_TestMatrix2_column_1_1           00000000
_TestMatrix2_row_1_1              00000000
_Tick                             00000000
_Timer                            00000000
_WDTCON                           00000000
_WDTCONbits                       00000000
_WREG                             00000000
__18F452                          00000001
__divsint                         00000000
__moduint                         00000000
__mulint                          00000000
__str_0                           00000100
__str_1                           00000112
_app_flags                        00000000
_button_event_map                 00000080
_clock_bars                       00000000
_clock_beats                      00000000
_clock_ticks                      00000000
_last_ain_pin                     00000000
_last_din_pin                     00000000
_last_dout_pin                    00000000
_last_sysex                       00000000
_matrix_1                         00000000
_matrix_2                         00000040
_mios_enc_pin_table               00000000
_mios_mproc_event_table           00000000
_pot_event_map                    00000000
gpasm-0.13.5 beta               _output/main__mios-gpasm-tmp.asm11-21-2009  19:30:07         PAGE 99


LOC  OBJECT CODE     LINE SOURCE TEXT
  VALUE
 
_record_sysex                     00000000
_test_mode                        00000000
r0x00                             00000010
r0x01                             00000011
r0x02                             00000012
r0x03                             00000013
r0x04                             00000014
r0x05                             00000015
r0x06                             00000016
r0x07                             00000017
r0x08                             00000018
r0x09                             00000019
r0x0a                             0000001A
r0x0b                             0000001B
r0x0c                             0000001C


Errors   :       0
Warnings :       0 reported,       0 suppressed
Messages :       0 reported,       0 suppressed

